(lp1
(lp2
S'fun'
p3
aS'happy'
p4
aS'party'
p5
aS'upbeat'
p6
aS'funky'
p7
aS'summer'
p8
aS'i feel good'
p9
aS'power'
p10
aS'energetic'
p11
aS'sexy'
p12
aa(lp13
S'chillout'
p14
aS'mellow'
p15
aS'smooth'
p16
aS'relaxing'
p17
aS'easy'
p18
aS'melancholy'
p19
aS'sad'
p20
aS'slow'
p21
aS'dreamy'
p22
aS'romantic'
p23
aa(lp24
S'progressive'
p25
aS'psychedelic'
p26
aS'sardonic'
p27
aS'cynical'
p28
aS'sarcastic'
p29
aS'heavy'
p30
aS'melodic'
p31
ag10
aS'eclectic'
p32
aS'dark'
p33
aa.