(lp1
I440
aI444
aI447
aI646
aI1266
aI1389
aI1587
aI1937
aI2487
aI2898
aI3677
aI3791
aI3796
aI4085
aI4194
aI4375
aI4445
aI4508
aI4608
aI4610
aI4790
aI4938
aI5186
aI5188
aI5200
aI5290
aI5337
aI5339
aI5345
aI5381
aI5569
aI5587
aI6149
aI6226
aI6228
aI6266
aI6389
aI7184
aI7185
aI7226
aI7228
aI7419
aI7451
aI7454
aI7458
aI8150
aI8168
aI8176
aI8205
aI8237
aI8341
aI8354
aI8367
aI8370
aI8410
aI8413
aI8422
aI8467
aI8468
aI8473
aI8476
aI8478
aI8483
aI8501
aI8521
aI8527
aI8612
aI8955
aI8959
aI9045
aI9049
aI9051
aI9052
aI9154
aI9199
aI9200
aI9345
aI9366
aI9420
aI9727
aI10102
aI10199
aI10229
aI10258
aI10274
aI10275
aI10285
aI10287
aI10493
aI10569
aI10588
aI10589
aI10590
aI10592
aI10596
aI10629
aI10694
aI10700
aI11410
aI11804
aI11805
aI11828
aI11881
aI11884
aI11904
aI11911
aI11932
aI12119
aI12120
aI12123
aI12124
aI12129
aI12570
aI12600
aI12924
aI13117
aI13222
aI13226
aI13235
aI13239
aI13253
aI13413
aI13416
aI13417
aI13517
aI13628
aI13632
aI13645
aI13651
aI13687
aI13973
aI14429
aI14469
aI14559
aI14590
aI14680
aI15343
aI15481
aI15491
aI15558
aI15573
aI15672
aI15683
aI15688
aI15811
aI15859
aI16101
aI16130
aI16164
aI16182
aI16243
aI16270
aI16276
aI16283
aI16465
aI16490
aI16603
aI16710
aI16736
aI16753
aI16820
aI16898
aI16908
aI16924
aI16959
aI16981
aI16982
aI17153
aI17162
aI17163
aI17271
aI17300
aI17305
aI17318
aI17349
aI17396
aI17421
aI17431
aI17458
aI17501
aI17549
aI17559
aI17592
aI17798
aI17816
aI17860
aI18047
aI18097
aI18280
aI18354
aI19135
aI19848
aI20531
aI22096
aI22692
aI23051
aI23620
aI23659
aI23696
aI23707
aI23858
aI23892
aI23921
aI24094
aI24294
aI24462
aI24482
aI24517
aI24534
aI24832
aI24927
aI24931
aI25001
aI25160
aI25762
aI25766
aI25769
aI26046
aI26048
aI26052
aI26096
aI26104
aI26131
aI26487
aI26588
aI27227
aI27270
aI28076
aI28220
aI28351
aI28739
aI28792
aI28918
aI29208
aI29518
aI30167
aI30341
aI30907
aI31032
aI31084
aI31091
aI31248
aI31352
aI31516
aI31564
aI31693
aI31730
aI31744
aI31758
aI31762
aI31800
aI31805
aI31820
aI31934
aI31936
aI31972
aI32141
aI32146
aI32470
aI32590
aI32668
aI32694
aI33009
aI33017
aI33080
aI33168
aI33191
aI33421
aI33432
aI34019
aI34135
aI34238
aI34280
aI34328
aI34411
aI34413
aI34437
aI34640
aI34667
aI34819
aI34978
aI35106
aI35185
aI35265
aI35858
aI35882
aI36760
aI36965
aI37024
aI37061
aI37160
aI38030
aI38437
aI38474
aI39315
aI39773
aI39778
aI39863
aI40006
aI40065
aI40075
aI40204
aI40222
aI40390
aI40431
aI40758
aI40898
aI41000
aI41065
aI41152
aI41161
aI41176
aI41263
aI41291
aI41420
aI41438
aI41443
aI41451
aI41454
aI41470
aI41548
aI41559
aI41564
aI41622
aI41636
aI41685
aI41686
aI41695
aI41701
aI41827
aI41837
aI41839
aI41849
aI41851
aI42203
aI42539
aI1000072
aI1000085
aI1000162
aI1000459
aI1000509
aI1000510
aI1000567
aI1000670
aI1000681
aI1001073
aI1001432
aI1001435
aI1001481
aI1001688
aI1001693
aI1001828
aI1001854
aI1002006
aI1002020
aI1002227
aI1002286
aI1002560
aI1002575
aI1002762
aI1002772
aI1002781
aI1002784
aI1002865
aI1002995
aI1003049
aI1003099
aI1003205
aI1003214
aI1003244
aI1003320
aI1003329
aI1003376
aI1003424
aI1003429
aI1003450
aI1003451
aI1003584
aI1003656
aI1003800
aI1003847
aI1003900
aI1004015
aI1004025
aI1004081
aI1004231
aI1004284
aI1004361
aI1004365
aI1004399
aI1004410
aI1004541
aI1004546
aI1004576
aI1004599
aI1004606
aI1004624
aI1004678
aI1004762
aI1004922
aI1005047
aI1005377
aI1005454
aI1005712
aI1005770
aI1005832
aI1005877
aI1005883
aI1006095
aI1006289
aI1006400
aI1006405
aI1006430
aI1006677
aI1006714
aI1006777
aI1006937
aI1007186
aI1007231
aI1007253
aI1007402
aI1007476
aI1007712
aI1007743
aI1007766
aI1007910
aI1007947
aI1008025
aI1008079
aI1008262
aI1008428
aI1008636
aI1008732
aI1008733
aI1008735
aI1008854
aI1008889
aI1008953
aI1009038
aI1009089
aI1009282
aI1009543
aI1009957
aI1009998
aI1010013
aI1010017
aI1010046
aI1010262
aI1010482
aI1010605
aI1010646
aI1010853
aI1010906
aI1011000
aI1011225
aI1011494
aI1011658
aI1011683
aI1011691
aI1011702
aI1011735
aI1011887
aI1011892
aI1012071
aI1012155
aI1012242
aI1012261
aI1012279
aI1012307
aI1012322
aI1012346
aI1012358
aI1012367
aI1012402
aI1012403
aI1012411
aI1012420
aI1012495
aI1012690
aI1012737
aI1012825
aI1012960
aI1013011
aI1013065
aI1013120
aI1013126
aI1013129
aI1013430
aI1013448
aI1013608
aI1014328
aI1014465
aI1014557
aI1014690
aI1014778
aI1014840
aI1014865
aI1014978
aI1015283
aI1015415
aI1015477
aI1015633
aI1015680
aI1015712
aI1016094
aI1016198
aI1016289
aI1016620
aI1016782
aI1016785
aI1017135
aI1017137
aI1017310
aI1017463
aI1017490
aI1017514
aI1017642
aI1017865
aI1017942
aI1018045
aI1018296
aI1018361
aI1018434
aI1018575
aI1018665
aI1018726
aI1018754
aI1018823
aI1018834
aI1018998
aI1019136
aI1019518
aI1019749
aI1019756
aI1019757
aI1019996
aI1020047
aI1020790
aI1020792
aI1021023
aI1021038
aI1021235
aI1021238
aI1021322
aI1021364
aI1021571
aI1021663
aI1021664
aI1021748
aI1022154
aI1022206
aI1022310
aI1022695
aI1022793
aI1022802
aI1022816
aI1022863
aI1022933
aI1022964
aI1023018
aI1023048
aI1023089
aI1023195
aI1023798
aI1023967
aI1024040
aI1024177
aI1024287
aI1024309
aI1024317
aI1024403
aI1024419
aI1024689
aI1024778
aI1024796
aI1024886
aI1025868
aI1025953
aI1026332
aI1026513
aI1026837
aI1026868
aI1026895
aI1027088
aI1027149
aI1027449
aI1027759
aI1028013
aI1028022
aI1028150
aI1028708
aI1028815
aI1029820
aI1030111
aI1030129
aI1030214
aI1030390
aI1030413
aI1030541
aI1031001
aI1031010
aI1031030
aI1031356
aI1031915
aI1032011
aI1032057
aI1032161
aI1032182
aI1032400
aI1032797
aI1032837
aI1032868
aI1033101
aI1033163
aI1033227
aI1033233
aI1033247
aI1033253
aI1033467
aI1033713
aI1033760
aI1034118
aI1034159
aI1034309
aI1034438
aI1034514
aI1034757
aI1034765
aI1034826
aI1035167
aI1035406
aI1035408
aI1035638
aI1035667
aI1036041
aI1036378
aI1036667
aI1036672
aI1036764
aI1036792
aI1036851
aI1036959
aI1037168
aI1037230
aI1037318
aI1037421
aI1037976
aI1038030
aI1038197
aI1038242
aI1038298
aI1038333
aI1038373
aI1038461
aI1038732
aI1039124
aI1039206
aI1040004
aI1040182
aI1040238
aI1040244
aI1040356
aI1040363
aI1040504
aI1040530
aI1040683
aI1041009
aI1041075
aI1041140
aI1042102
aI1042351
aI1042462
aI1042530
aI1042550
aI1042596
aI1042967
aI1043200
aI1043257
aI1043297
aI1044048
aI1044188
aI1044467
aI1044598
aI1044602
aI1044851
aI1044925
aI1044940
aI1045070
aI1045297
aI1045355
aI1045637
aI1045745
aI1045907
aI1046097
aI1046197
aI1046367
aI1046426
aI1046558
aI1046655
aI1046854
aI1046963
aI1047004
aI1047022
aI1047082
aI1047270
aI1047647
aI1047729
aI1048049
aI1048801
aI1049742
aI1049828
aI1049991
aI1050779
aI1050789
aI1050807
aI1050847
aI1051153
aI1051206
aI1051278
aI1052122
aI1052161
aI1052313
aI1052796
aI1052857
aI1053347
aI1053577
aI1053684
aI1053698
aI1053856
aI1053954
aI1054139
aI1054155
aI1054226
aI1054413
aI1054560
aI1054585
aI1054894
aI1055234
aI1055283
aI1055721
aI1055750
aI1055760
aI1055812
aI1055961
aI1056071
aI1056076
aI1056125
aI1056282
aI1056564
aI1056811
aI1056830
aI1056904
aI1057088
aI1057091
aI1057130
aI1057146
aI1057211
aI1057227
aI1057247
aI1057290
aI1057405
aI1057566
aI1057655
aI1057782
aI1057888
aI1057928
aI1057949
aI1058029
aI1058260
aI1058627
aI1058904
aI1058941
aI1059060
aI1059238
aI1059296
aI1059420
aI1059500
aI1059631
aI1059798
aI1060110
aI1060125
aI1060253
aI1060329
aI1060348
aI1060464
aI1060512
aI1060576
aI1060620
aI1060629
aI1060678
aI1060791
aI1061052
aI1061120
aI1061142
aI1061632
aI1061792
aI1062191
aI1062324
aI1062690
aI1062742
aI1062832
aI1062993
aI1063343
aI1063353
aI1063407
aI1063509
aI1063894
aI1064358
aI1065213
aI1065305
aI1065444
aI1065613
aI1065852
aI1066483
aI1066503
aI1066527
aI1066539
aI1067191
aI1067366
aI1067420
aI1067511
aI1067925
aI1068716
aI1068789
aI1068906
aI1068945
aI1069129
aI1069167
aI1069175
aI1069364
aI1069614
aI1069619
aI1069626
aI1069644
aI1070485
aI1071283
aI1071345
aI1071760
aI1071855
aI1072245
aI1072283
aI1072440
aI1072589
aI1073258
aI1073296
aI1073484
aI1073525
aI1073541
aI1073655
aI1073772
aI1073992
aI1074695
aI1074938
aI1075246
aI1075330
aI1075357
aI1075910
aI1075998
aI1076427
aI1076504
aI1076875
aI1077683
aI1077896
aI1077992
aI1078109
aI1078224
aI1078623
aI1078806
aI1079060
aI1079180
aI1079976
aI1080076
aI1080151
aI1080188
aI1080326
aI1080385
aI1080395
aI1081297
aI1081306
aI1081501
aI1081517
aI1081858
aI1081965
aI1081974
aI1082003
aI1082566
aI1083089
aI1083101
aI1083178
aI1083209
aI1083418
aI1083836
aI1083896
aI1083966
aI1084499
aI1084594
aI1084726
aI1084829
aI1084980
aI1085038
aI1085159
aI1085304
aI1085335
aI1085617
aI1086578
aI1086662
aI1086742
aI1086746
aI1086787
aI1087554
aI1087573
aI1087621
aI1088233
aI1088336
aI1088377
aI1088431
aI1089569
aI1089785
aI1089946
aI1089994
aI1090182
aI1090251
aI1090425
aI1090984
aI1091338
aI1091390
aI1091392
aI1091460
aI1091690
aI1091848
aI1092013
aI1092019
aI1092508
aI1093135
aI1094030
aI1094079
aI1094235
aI1094456
aI1094562
aI1094850
aI1095299
aI1095443
aI1095604
aI1095682
aI1095937
aI1095941
aI1096474
aI1096887
aI1097026
aI1097083
aI1097281
aI1097346
aI1097401
aI1097543
aI1097557
aI1097658
aI1097687
aI1097955
aI1098175
aI1098359
aI1098364
aI1098529
aI1098680
aI1098698
aI1099530
aI1099652
aI1099843
aI1099937
aI1100056
aI1100290
aI1100309
aI1100331
aI1100813
aI1101220
aI1101472
aI1102541
aI1102550
aI1102552
aI1102780
aI1103003
aI1103170
aI1103284
aI1103798
aI1103964
aI1103997
aI1104009
aI1104156
aI1104189
aI1105201
aI1105354
aI1106185
aI1106577
aI1107019
aI1107123
aI1107152
aI1107409
aI1107504
aI1107638
aI1107874
aI1107897
aI1107994
aI1108227
aI1108280
aI1108631
aI1108912
aI1109208
aI1109220
aI1109689
aI1110576
aI1111100
aI1111238
aI1111371
aI1112386
aI1112488
aI1112524
aI1112815
aI1113330
aI1113688
aI1113791
aI1114349
aI1114363
aI1114379
aI1114380
aI1114634
aI1114826
aI1114951
aI1115052
aI1115077
aI1115290
aI1115387
aI1115578
aI1115760
aI1115931
aI1116324
aI1116385
aI1116531
aI1116778
aI1117024
aI1117335
aI1117444
aI1117875
aI1118924
aI1119902
aI1120140
aI1120181
aI1120529
aI1120974
aI1120975
aI1121015
aI1121470
aI1121480
aI1121506
aI1121639
aI1122058
aI1122197
aI1122604
aI1123040
aI1123050
aI1123289
aI1123554
aI1123734
aI1123907
aI1124169
aI1125486
aI1126528
aI1126631
aI1126936
aI1127181
aI1127213
aI1127579
aI1127671
aI1128245
aI1128647
aI1128652
aI1128731
aI1128768
aI1128845
aI1129099
aI1129339
aI1129667
aI1130117
aI1130708
aI1130730
aI1131490
aI1131621
aI1131709
aI1131841
aI1132074
aI1132101
aI1132328
aI1132380
aI1132677
aI1132730
aI1132748
aI1132762
aI1132820
aI1133237
aI1133864
aI1133893
aI1133896
aI1133909
aI1133953
aI1134153
aI1134242
aI1134545
aI1134851
aI1134948
aI1134962
aI1135283
aI1135299
aI1135466
aI1135565
aI1135708
aI1135881
aI1136033
aI1136074
aI1136552
aI1136648
aI1136710
aI1136874
aI1137044
aI1137637
aI1138056
aI1139587
aI1140215
aI1140387
aI1140413
aI1140443
aI1140803
aI1141156
aI1141424
aI1141467
aI1141575
aI1141779
aI1141788
aI1141959
aI1143359
aI1143553
aI1144142
aI1144908
aI1144945
aI1145737
aI1145832
aI1146043
aI1146267
aI1146342
aI1146487
aI1146564
aI1147212
aI1147236
aI1147336
aI1147606
aI1147675
aI1148275
aI1148624
aI1149024
aI1149077
aI1149658
aI1149695
aI1149888
aI1150417
aI1150991
aI1151004
aI1151090
aI1151126
aI1151212
aI1151938
aI1152414
aI1152593
aI1152609
aI1152659
aI1152875
aI1152990
aI1153051
aI1153168
aI1153604
aI1154213
aI1154329
aI1154368
aI1154982
aI1154983
aI1155199
aI1155234
aI1155283
aI1155515
aI1155685
aI1155860
aI1156002
aI1156401
aI1156657
aI1156792
aI1156806
aI1156922
aI1156941
aI1157208
aI1157226
aI1157286
aI1157343
aI1157494
aI1157500
aI1157502
aI1157609
aI1157734
aI1157766
aI1157799
aI1157953
aI1158380
aI1159120
aI1159125
aI1159370
aI1159744
aI1159843
aI1160024
aI1160087
aI1160181
aI1160216
aI1160452
aI1160540
aI1160874
aI1161095
aI1161154
aI1161206
aI1161365
aI1161375
aI1161402
aI1161789
aI1161790
aI1161898
aI1162044
aI1162057
aI1162505
aI1163033
aI1164300
aI1164526
aI1164557
aI1165382
aI1165610
aI1165750
aI1165808
aI1165849
aI1166279
aI1166711
aI1166845
aI1167726
aI1167809
aI1167823
aI1167912
aI1167981
aI1168025
aI1168103
aI1168133
aI1168146
aI1168158
aI1168200
aI1168204
aI1168259
aI1168388
aI1169275
aI1169576
aI1169760
aI1169978
aI1170006
aI1170024
aI1170036
aI1170137
aI1170394
aI1171120
aI1171392
aI1171419
aI1171596
aI1172113
aI1172191
aI1172284
aI1172314
aI1172366
aI1172440
aI1173124
aI1173125
aI1173490
aI1173720
aI1173726
aI1173873
aI1173927
aI1173929
aI1174331
aI1174616
aI1174902
aI1174977
aI1175182
aI1175196
aI1175378
aI1176055
aI1176324
aI1176489
aI1176688
aI1176959
aI1177139
aI1177192
aI1178849
aI1178921
aI1179178
aI1179227
aI1179234
aI1179453
aI1179519
aI1180070
aI1180608
aI1180613
aI1181431
aI1181719
aI1181760
aI1182649
aI1183129
aI1183776
aI1183923
aI1184006
aI1184007
aI1184267
aI1184349
aI1184442
aI1184596
aI1184649
aI1184782
aI1185155
aI1185162
aI1185234
aI1185236
aI1185292
aI1185636
aI1185998
aI1186241
aI1186297
aI1186509
aI1186651
aI1186850
aI1186939
aI1187108
aI1187624
aI1188095
aI1188919
aI1189391
aI1189628
aI1189667
aI1190114
aI1190497
aI1190638
aI1190828
aI1191370
aI1191449
aI1191456
aI1191472
aI1192005
aI1193316
aI1193403
aI1193549
aI1193658
aI1194088
aI1194091
aI1194796
aI1194797
aI1195291
aI1195629
aI1195837
aI1195963
aI1196005
aI1196170
aI1196274
aI1196500
aI1197585
aI1197929
aI1197961
aI1198350
aI1198420
aI1198439
aI1198678
aI1199179
aI1199394
aI1199665
aI1199759
aI1200026
aI1200226
aI1200786
aI1201500
aI1201514
aI1201515
aI1201553
aI1201710
aI1201732
aI1201814
aI1202257
aI1202376
aI1202477
aI1202501
aI1202537
aI1202742
aI1202775
aI1202867
aI1202921
aI1203013
aI1203016
aI1203345
aI1203420
aI1203642
aI1203678
aI1205885
aI1206660
aI1207332
aI1207463
aI1207724
aI1208393
aI1209282
aI1209582
aI1209997
aI1210333
aI1210374
aI1210962
aI1211142
aI1211237
aI1211328
aI1211715
aI1212378
aI1212473
aI1212564
aI1213002
aI1213254
aI1213598
aI1213678
aI1213684
aI1213713
aI1214310
aI1214499
aI1214590
aI1214714
aI1215393
aI1215448
aI1216702
aI1217570
aI1217611
aI1217629
aI1217635
aI1217904
aI1219148
aI1219397
aI1219438
aI1219779
aI1219863
aI1219925
aI1219940
aI1220475
aI1221580
aI1221584
aI1221730
aI1221916
aI1221957
aI1221997
aI1222070
aI1222894
aI1223066
aI1223076
aI1223289
aI1223369
aI1223451
aI1224371
aI1224572
aI1224573
aI1224574
aI1225237
aI1225447
aI1225629
aI1225710
aI1225724
aI1225794
aI1225870
aI1225893
aI1225934
aI1226681
aI1226785
aI1227282
aI1227573
aI1227727
aI1227744
aI1227837
aI1227907
aI1227983
aI1228054
aI1228093
aI1228106
aI1228330
aI1228444
aI1228712
aI1229904
aI1229909
aI1230301
aI1230347
aI1231021
aI1231166
aI1231897
aI1232336
aI1232448
aI1233420
aI1233821
aI1233965
aI1234525
aI1234977
aI1235011
aI1235454
aI1236245
aI1236392
aI1236708
aI1236926
aI1237128
aI1237258
aI1237313
aI1238737
aI1239343
aI1239407
aI1239410
aI1239515
aI1240879
aI1240953
aI1240987
aI1241101
aI1241313
aI1241378
aI1241407
aI1241725
aI1241731
aI1241902
aI1242139
aI1242150
aI1243600
aI1243858
aI1243899
aI1244004
aI1244056
aI1244133
aI1244164
aI1244572
aI1244687
aI1244718
aI1244904
aI1245164
aI1245190
aI1245306
aI1245309
aI1246632
aI1246797
aI1246802
aI1247054
aI1247364
aI1247525
aI1247654
aI1247904
aI1248372
aI1248398
aI1248651
aI1248840
aI1249245
aI1249703
aI1249881
aI1249901
aI1249944
aI1249958
aI1250012
aI1250180
aI1250492
aI1250521
aI1250791
aI1250841
aI1250873
aI1250883
aI1250901
aI1251189
aI1251195
aI1251309
aI1251871
aI1251927
aI1251936
aI1251970
aI1252288
aI1252506
aI1252773
aI1252965
aI1253028
aI1253403
aI1253418
aI1253840
aI1253891
aI1254540
aI1254602
aI1254749
aI1254798
aI1254854
aI1254861
aI1254949
aI1255028
aI1255043
aI1255057
aI1255101
aI1255348
aI1255374
aI1255980
aI1256908
aI1257297
aI1257803
aI1257963
aI1258361
aI1258579
aI1258580
aI1258982
aI1259242
aI1259534
aI1259932
aI1260269
aI1260340
aI1260546
aI1260569
aI1261404
aI1261498
aI1261515
aI1261819
aI1262284
aI1263064
aI1263109
aI1263313
aI1263490
aI1263880
aI1264482
aI1264577
aI1264608
aI1264754
aI1264756
aI1265442
aI1265592
aI1265812
aI1265903
aI1265930
aI1266191
aI1267326
aI1267835
aI1268354
aI1268548
aI1268587
aI1268699
aI1269179
aI1269190
aI1269416
aI1269528
aI1269574
aI1270157
aI1270527
aI1270649
aI1270771
aI1270777
aI1270785
aI1270916
aI1271105
aI1271340
aI1271489
aI1271535
aI1271990
aI1272574
aI1272644
aI1272855
aI1272988
aI1273034
aI1273211
aI1273405
aI1273577
aI1274033
aI1274104
aI1274125
aI1274159
aI1274368
aI1275610
aI1276047
aI1276069
aI1276469
aI1276535
aI1276678
aI1276746
aI1277019
aI1277094
aI1277291
aI1277314
aI1278048
aI1278891
aI1279099
aI1279302
aI1279327
aI1279355
aI1280299
aI1280407
aI1280421
aI1281042
aI1281293
aI1281418
aI1281929
aI1282172
aI1282732
aI1282882
aI1283688
aI1284214
aI1284629
aI1285180
aI1285215
aI1285749
aI1285768
aI1285986
aI1286318
aI1286377
aI1286420
aI1286486
aI1286630
aI1287137
aI1287422
aI1287728
aI1288432
aI1288584
aI1290046
aI1290071
aI1290181
aI1290339
aI1290554
aI1290662
aI1291130
aI1291146
aI1291300
aI1291542
aI1292038
aI1293558
aI1293622
aI1293726
aI1293795
aI1293850
aI1294041
aI1294284
aI1295169
aI1295833
aI1296147
aI1296374
aI1296378
aI1296565
aI1296703
aI1296820
aI1296886
aI1296918
aI1297112
aI1297165
aI1297250
aI1297290
aI1297389
aI1297939
aI1298173
aI1298784
aI1298946
aI1299086
aI1299290
aI1299900
aI1299964
aI1300001
aI1300389
aI1300419
aI1300429
aI1300804
aI1300867
aI1300993
aI1301131
aI1301302
aI1301611
aI1302110
aI1302247
aI1302823
aI1303024
aI1303036
aI1303351
aI1303543
aI1304118
aI1304308
aI1304390
aI1304617
aI1304633
aI1305177
aI1305555
aI1305920
aI1306428
aI1307416
aI1307849
aI1308115
aI1308529
aI1308615
aI1308629
aI1308809
aI1309146
aI1309701
aI1309808
aI1309823
aI1310049
aI1310086
aI1310125
aI1310164
aI1310318
aI1310374
aI1310709
aI1311898
aI1312339
aI1312536
aI1312755
aI1313331
aI1313384
aI1313430
aI1313578
aI1314411
aI1314560
aI1314955
aI1315006
aI1315030
aI1315266
aI1315399
aI1315630
aI1315645
aI1315813
aI1316123
aI1316139
aI1316316
aI1316382
aI1317016
aI1317126
aI1318147
aI1318164
aI1318258
aI1318395
aI1318798
aI1318881
aI1319005
aI1319156
aI1319762
aI1319865
aI1321349
aI1321604
aI1321896
aI1322216
aI1322873
aI1323783
aI1324201
aI1324664
aI1324926
aI1325050
aI1325088
aI1325673
aI1326468
aI1326474
aI1326701
aI1326785
aI1326897
aI1327254
aI1328105
aI1328294
aI1328370
aI1328637
aI1328752
aI1328809
aI1328901
aI1329802
aI1330799
aI1330952
aI1331042
aI1331324
aI1331376
aI1331675
aI1331901
aI1332498
aI1333682
aI1334001
aI1334675
aI1334737
aI1334813
aI1335250
aI1335398
aI1335496
aI1335580
aI1335594
aI1335652
aI1335826
aI1336168
aI1336419
aI1336471
aI1337101
aI1337271
aI1337369
aI1337514
aI1337826
aI1337953
aI1338512
aI1338881
aI1339351
aI1339907
aI1340761
aI1341389
aI1341546
aI1341949
aI1343301
aI1343493
aI1345172
aI1345669
aI1345703
aI1345736
aI1346256
aI1346410
aI1346934
aI1347173
aI1348011
aI1348027
aI1348141
aI1348253
aI1348340
aI1348411
aI1349423
aI1349820
aI1350290
aI1350629
aI1351054
aI1352009
aI1352317
aI1353138
aI1353375
aI1353534
aI1353659
aI1353823
aI1354651
aI1355109
aI1355502
aI1356654
aI1356688
aI1357087
aI1357851
aI1359195
aI1359625
aI1359833
aI1359853
aI1359973
aI1360330
aI1361903
aI1362415
aI1362897
aI1362976
aI1363072
aI1364474
aI1365521
aI1366174
aI1367289
aI1367490
aI1367978
aI1368225
aI1368404
aI1368432
aI1368848
aI1368901
aI1369219
aI1369579
aI1371937
aI1372473
aI1373314
aI1373911
aI1373932
aI1374274
aI1374552
aI1374572
aI1374684
aI1374936
aI1377157
aI1377321
aI1377518
aI1377670
aI1378263
aI1379143
aI1379572
aI1380099
aI1382059
aI1383213
aI1383214
aI1383810
aI1383829
aI1383999
aI1384141
aI1385337
aI1385361
aI1385742
aI1386517
aI1387362
aI1387838
aI1388496
aI1390352
aI1390580
aI1392738
aI1392944
aI1392946
aI1393314
aI1394395
aI1394754
aI1394818
aI1394940
aI1396046
aI1396065
aI1396141
aI1396630
aI1397372
aI1397703
aI1398061
aI1398627
aI1398833
aI1398982
aI1399945
aI1399956
aI1400292
aI1400363
aI1401209
aI1401352
aI1401420
aI1401481
aI1403164
aI1403367
aI1403391
aI1403629
aI1403646
aI1403865
aI1403878
aI1403893
aI1404206
aI1404304
aI1405810
aI1405977
aI1406689
aI1406711
aI1406821
aI1406987
aI1407073
aI1407236
aI1408455
aI1408931
aI1410392
aI1410803
aI1410833
aI1411197
aI1411370
aI1411619
aI1412505
aI1412727
aI1413099
aI1413178
aI1413672
aI1414007
aI1414248
aI1414996
aI1415541
aI1416492
aI1416586
aI1416744
aI1416932
aI1417047
aI1417216
aI1418212
aI1418572
aI1418840
aI1418860
aI1420226
aI1420244
aI1420779
aI1420818
aI1421342
aI1421515
aI1421553
aI1422036
aI1423535
aI1423821
aI1424105
aI1424160
aI1424163
aI1424343
aI1424404
aI1424548
aI1424716
aI1425703
aI1426088
aI1426880
aI1427251
aI1427547
aI1427836
aI1429133
aI1429673
aI1430021
aI1431483
aI1431612
aI1432985
aI1433042
aI1434114
aI1434129
aI1434758
aI1435631
aI1436518
aI1437066
aI1437208
aI1437307
aI1437363
aI1437678
aI1437797
aI1437805
aI1437806
aI1437972
aI1438424
aI1438665
aI1438779
aI1439037
aI1439070
aI1439083
aI1439417
aI1439437
aI1440060
aI1440095
aI1440916
aI1442146
aI1443157
aI1443276
aI1443463
aI1443644
aI1444334
aI1444542
aI1444614
aI1444708
aI1444867
aI1444915
aI1445231
aI1446079
aI1446403
aI1446785
aI1446906
aI1447181
aI1447754
aI1448683
aI1448738
aI1449482
aI1451017
aI1451512
aI1452089
aI1452140
aI1452210
aI1452730
aI1452736
aI1452795
aI1453231
aI1453469
aI1453735
aI1453813
aI1454191
aI1454251
aI1454340
aI1454445
aI1455529
aI1456112
aI1456804
aI1457930
aI1458969
aI1459229
aI1459384
aI1459760
aI1460144
aI1461611
aI1461907
aI1462864
aI1462890
aI1462911
aI1462924
aI1463322
aI1463819
aI1465535
aI1465553
aI1466710
aI1466845
aI1467283
aI1467439
aI1468022
aI1468245
aI1468294
aI1468392
aI1468880
aI1469259
aI1469784
aI1470357
aI1470381
aI1471908
aI1472419
aI1472496
aI1472507
aI1472754
aI1473087
aI1473351
aI1474062
aI1475333
aI1475626
aI1475947
aI1476020
aI1476140
aI1476787
aI1477070
aI1477304
aI1477603
aI1478235
aI1478339
aI1479161
aI1479420
aI1479422
aI1480485
aI1480548
aI1481131
aI1481178
aI1483873
aI1483936
aI1484985
aI1485392
aI1486546
aI1486715
aI1486854
aI1488316
aI1488837
aI1488917
aI1488958
aI1488989
aI1489418
aI1489450
aI1489476
aI1489928
aI1493492
aI1493639
aI1493650
aI1494025
aI1495174
aI1495363
aI1495658
aI1495717
aI1495897
aI1496339
aI1496344
aI1496431
aI1496524
aI1496560
aI1496570
aI1497216
aI1498383
aI1500112
aI1502375
aI1502537
aI1502589
aI1502637
aI1502747
aI1502906
aI1503432
aI1503854
aI1504704
aI1505452
aI1505893
aI1506543
aI1506760
aI1508771
aI1509480
aI1510045
aI1510277
aI1510848
aI1511580
aI1511653
aI1512421
aI1512734
aI1512949
aI1513747
aI1514076
aI1514385
aI1515075
aI1515429
aI1515730
aI1515995
aI1516073
aI1517513
aI1517835
aI1517874
aI1518262
aI1519018
aI1519027
aI1519378
aI1519652
aI1519853
aI1519998
aI1520238
aI1520652
aI1521746
aI1522466
aI1523262
aI1523508
aI1524273
aI1525297
aI1525785
aI1525810
aI1526081
aI1526590
aI1527998
aI1528090
aI1528420
aI1529279
aI1530377
aI1530386
aI1531838
aI1532319
aI1532865
aI1533160
aI1533169
aI1533437
aI1533645
aI1534341
aI1534604
aI1534889
aI1534930
aI1535074
aI1535126
aI1535176
aI1535417
aI1536836
aI1536858
aI1536891
aI1537258
aI1537688
aI1537841
aI1538273
aI1538416
aI1538693
aI1538780
aI1539469
aI1539570
aI1540065
aI1540552
aI1540580
aI1541475
aI1542359
aI1542402
aI1542606
aI1542755
aI1544276
aI1544360
aI1545340
aI1545519
aI1545850
aI1546114
aI1546362
aI1546606
aI1546777
aI1547042
aI1547351
aI1548107
aI1548324
aI1548375
aI1549013
aI1549247
aI1550451
aI1550547
aI1551152
aI1551708
aI1551941
aI1551957
aI1552334
aI1552551
aI1552765
aI1553134
aI1553365
aI1554092
aI1554274
aI1554540
aI1554925
aI1555459
aI1555540
aI1555602
aI1555936
aI1556051
aI1556189
aI1556752
aI1556836
aI1557448
aI1557817
aI1558607
aI1559700
aI1560513
aI1562199
aI1562396
aI1562557
aI1563435
aI1563580
aI1564145
aI1564441
aI1564467
aI1564595
aI1564618
aI1565609
aI1565702
aI1567090
aI1567128
aI1567376
aI1567405
aI1567952
aI1568035
aI1568653
aI1568964
aI1570691
aI1572012
aI1572254
aI1572358
aI1572453
aI1573698
aI1573848
aI1573891
aI1573932
aI1574035
aI1574927
aI1575676
aI1576966
aI1577461
aI1578298
aI1578328
aI1579209
aI1579748
aI1579960
aI1580231
aI1582064
aI1582691
aI1584069
aI1584856
aI1585586
aI1585654
aI1585800
aI1585955
aI1586222
aI1586760
aI1587185
aI1587294
aI1589605
aI1589970
aI1590229
aI1591591
aI1594154
aI1596500
aI1597081
aI1597794
aI1598416
aI1598449
aI1598452
aI1600285
aI1600950
aI1601050
aI1601122
aI1601155
aI1601362
aI1601428
aI1601576
aI1602395
aI1603117
aI1603430
aI1603811
aI1603997
aI1604056
aI1604636
aI1607672
aI1608895
aI1609384
aI1609585
aI1609641
aI1609837
aI1609982
aI1610940
aI1612150
aI1612757
aI1612859
aI1612989
aI1614190
aI1619374
aI1619521
aI1621834
aI1622621
aI1622692
aI1625973
aI1626588
aI1627055
aI1628574
aI1628886
aI1629203
aI1629371
aI1629413
aI1629577
aI1630117
aI1631110
aI1631434
aI1632193
aI1633236
aI1633277
aI1634111
aI1634342
aI1635188
aI1635395
aI1638538
aI1638949
aI1640603
aI1641012
aI1641110
aI1641567
aI1642095
aI1642170
aI1642283
aI1642420
aI1642509
aI1642620
aI1643519
aI1643584
aI1644724
aI1646794
aI1648793
aI1648796
aI1648890
aI1649011
aI1649222
aI1649247
aI1650481
aI1651909
aI1653518
aI1653637
aI1653683
aI1654545
aI1654550
aI1654724
aI1656144
aI1657157
aI1658439
aI1659794
aI1660932
aI1661201
aI1662338
aI1662892
aI1663330
aI1665399
aI1665447
aI1665643
aI1666620
aI1666659
aI1667273
aI1667585
aI1667900
aI1668065
aI1668093
aI1668120
aI1668186
aI1670569
aI1670913
aI1671273
aI1671345
aI1672872
aI1673052
aI1673088
aI1673122
aI1673313
aI1674477
aI1674786
aI1674985
aI1676387
aI1678159
aI1679223
aI1679347
aI1681184
aI1681908
aI1682209
aI1683117
aI1684904
aI1685227
aI1685319
aI1686523
aI1687819
aI1688298
aI1689359
aI1689762
aI1694353
aI1695462
aI1695666
aI1696165
aI1696873
aI1699036
aI1699242
aI1699279
aI1700805
aI1701311
aI1703091
aI1703242
aI1703251
aI1703380
aI1703798
aI1703817
aI1704295
aI1705089
aI1706753
aI1707152
aI1708726
aI1709285
aI1710506
aI1712120
aI1717349
aI1717805
aI1718720
aI1721425
aI1723287
aI1723474
aI1724604
aI1724791
aI1725148
aI1725429
aI1726624
aI1727222
aI1728921
aI1729702
aI1730080
aI1730262
aI1731945
aI1732839
aI1733992
aI1734411
aI1735598
aI1736666
aI1736800
aI1737892
aI1738332
aI1738682
aI1739447
aI1740705
aI1742219
aI1742428
aI1742641
aI1743829
aI1745476
aI1746409
aI1746829
aI1751026
aI1752492
aI1753360
aI1755484
aI1756003
aI1756707
aI1756854
aI1758815
aI1759494
aI1759506
aI1759902
aI1760105
aI1760335
aI1762048
aI1764093
aI1764211
aI1764832
aI1765055
aI1765505
aI1765572
aI1766091
aI1766415
aI1767142
aI1768139
aI1769193
aI1769937
aI1770461
aI1772163
aI1772320
aI1772445
aI1772917
aI1777017
aI1777618
aI1778007
aI1788947
aI1790049
aI1790595
aI1791175
aI1791176
aI1791355
aI1791527
aI1797180
aI1799871
aI1800509
aI1807473
aI1807575
aI1813980
aI1814869
aI1816378
aI1817535
aI1822756
aI1824936
aI1827920
aI1828164
aI1830255
aI1835700
aI1838037
aI1839654
aI1840327
aI1841753
aI1846365
aI1847211
aI1847385
aI1847425
aI1848647
aI1849093
aI1853415
aI1853417
aI1854923
aI1855384
aI1863034
aI1864656
aI1866261
aI1866350
aI1867163
aI1875575
aI1876198
aI1882210
aI1882515
aI1888377
aI1888476
aI1892315
aI1894332
aI1895112
aI1897649
aI1898913
aI1899836
aI1902123
aI1903831
aI1904577
aI1906006
aI1908087
aI1909647
aI1912371
aI1915840
aI1915940
aI1915966
aI1916233
aI1917389
aI1919289
aI1921011
aI1924190
aI1925577
aI1927190
aI1930880
aI1933405
aI1934639
aI1934851
aI1936302
aI1936556
aI1941957
aI1944107
aI1944352
aI1944450
aI1948955
aI1950401
aI1954785
aI1955639
aI1956353
aI1957283
aI1957468
aI1959222
aI1961261
aI1963402
aI1963893
aI1964654
aI1973578
aI1974912
aI1975996
aI1990411
aI1992913
aI1996344
aI1997003
aI2000657
aI2001124
aI2003222
aI2003416
aI2004690
aI2006273
aI2007043
aI2012144
aI2014657
aI2016302
aI2022445
aI2024347
aI2025972
aI2031696
aI2032685
aI2035898
aI2036233
aI2041940
aI2047342
aI2049884
aI2056333
aI2061412
aI2062252
aI2064235
aI2065455
aI2065747
aI2068997
aI2070796
aI2075597
aI2078374
aI2079897
aI2080015
aI2082938
aI2084005
aI2084132
aI2085228
aI2085231
aI2085235
aI2086287
aI2090941
aI2092120
aI2095534
aI2095615
aI2100574
aI2101809
aI2108396
aI2118741
aI2120174
aI2121752
aI2122399
aI2123327
aI2126160
aI2127773
aI2138507
aI2138987
aI2143685
aI2144330
aI2145247
aI2148494
aI2152461
aI2161630
aI2166313
aI2170063
aI2175068
aI2176967
aI2177269
aI2185622
aI2189292
aI2190124
aI2195351
aI2196566
aI2202321
aI2203706
aI2208259
aI2212054
aI2215942
aI2219208
aI2219677
aI2219794
aI2222586
aI2223526
aI2227317
aI2241152
aI2241787
aI2247235
aI2248720
aI2250784
aI2251021
aI2252566
aI2259093
aI2269664
aI2273886
aI2285911
aI2290757
aI2293417
aI2293990
aI2294970
aI2296945
aI2300613
aI2302233
aI2312653
aI2314374
aI2325896
aI2327143
aI2332413
aI2333869
aI2336526
aI2339431
aI2342936
aI2348993
aI2354940
aI2371706
aI2376333
aI2379226
aI2383215
aI2393970
aI2410723
aI2420125
aI2420904
aI2448137
aI2449924
aI2463671
aI2465966
aI2469568
aI2479290
aI2482183
aI2489509
aI2490856
aI2490952
aI2490989
aI2497102
aI2505202
aI2505479
aI2509493
aI2518793
aI2519647
aI2520234
aI2526789
aI2527067
aI2532408
aI2532507
aI2534115
aI2539171
aI2549721
aI2549889
aI2555493
aI2558225
aI2558880
aI2570713
aI2581009
aI2583912
aI2589570
aI2589693
aI2594503
aI2596455
aI2598653
aI2645811
aI2655751
aI2659350
aI2660493
aI2660552
aI2661817
aI2682443
aI2682779
aI2694788
aI2702366
aI2702367
aI2702497
aI2702610
aI2704062
aI2704617
aI2708221
aI2708296
aI2708816
aI2708844
aI2708933
aI2709120
aI2712608
aI2712689
aI2712696
aI2712746
aI2712936
aI2714956
aI2715705
aI2715770
aI2716303
aI2716306
aI2716405
aI2716408
aI2716497
aI2716717
aI2716719
aI2716811
aI2716867
aI2716955
aI2717017
aI2717099
aI2717323
aI2718847
aI2720055
aI2720148
aI2722299
aI2722497
aI2723147
aI2723532
aI2724033
aI2724374
aI2724420
aI2724686
aI2725039
aI2725313
aI2725616
aI2726524
aI2726636
aI2726677
aI2727318
aI2728221
aI2728304
aI2728498
aI2728679
aI2729986
aI2731010
aI2731782
aI2731802
aI2733228
aI2734171
aI2734193
aI2734218
aI2734839
aI2736029
aI2738643
aI2739516
aI2739628
aI2739629
aI2740978
aI2743192
aI2744395
aI2746926
aI2747622
aI2748057
aI2748107
aI2749572
aI2750482
aI2751095
aI2752013
aI2752360
aI2753503
aI2754153
aI2754257
aI2754429
aI2754613
aI2754780
aI2754852
aI2755516
aI2756262
aI2756649
aI2757036
aI2757545
aI2758298
aI2758904
aI2761687
aI2761991
aI2762636
aI2763168
aI2764015
aI2765646
aI2765667
aI2765919
aI2769064
aI2773165
aI2773167
aI2775724
aI2775869
aI2776633
aI2777127
aI2777445
aI2778338
aI2779071
aI2780308
aI2780396
aI2780858
aI2781448
aI2781544
aI2781902
aI2782643
aI2782747
aI2787169
aI2787396
aI2787911
aI2788482
aI2788485
aI2790777
aI2791240
aI2791271
aI2791322
aI2791494
aI2792952
aI2793102
aI2793382
aI2793391
aI2793819
aI2793831
aI2793883
aI2793924
aI2794298
aI2794485
aI2795806
aI2796873
aI2797653
aI2797837
aI2797859
aI2798717
aI2799019
aI2799182
aI2799185
aI2799985
aI2800019
aI2800029
aI2800040
aI2800113
aI2800215
aI2800608
aI2801176
aI2802505
aI2802666
aI2803451
aI2803466
aI2803865
aI2804037
aI2804496
aI2804780
aI2805981
aI2806378
aI2806533
aI2806616
aI2806656
aI2806660
aI2807342
aI2808855
aI2809023
aI2809077
aI2810023
aI2810683
aI2811024
aI2811069
aI2812224
aI2815306
aI2815695
aI2816375
aI2816460
aI2816753
aI2817639
aI2818039
aI2818222
aI2818526
aI2818849
aI2819099
aI2819681
aI2819754
aI2819860
aI2819898
aI2819924
aI2820000
aI2820191
aI2820344
aI2820390
aI2820524
aI2821798
aI2822019
aI2822092
aI2822304
aI2822313
aI2822321
aI2822423
aI2822499
aI2822981
aI2823034
aI2823049
aI2823052
aI2823053
aI2823546
aI2823597
aI2824171
aI2824283
aI2824328
aI2824442
aI2825031
aI2826115
aI2826215
aI2826264
aI2826527
aI2826883
aI2827207
aI2827247
aI2827332
aI2827634
aI2828513
aI2828678
aI2828986
aI2829132
aI2829153
aI2829766
aI2830097
aI2830212
aI2830321
aI2830334
aI2830546
aI2830553
aI2830558
aI2830573
aI2830945
aI2831035
aI2831045
aI2831152
aI2831165
aI2831170
aI2831209
aI2831245
aI2831266
aI2832739
aI2833571
aI2834087
aI2834614
aI2834946
aI2835756
aI2839098
aI2839375
aI2839776
aI2839819
aI2839849
aI2840407
aI2840561
aI2840684
aI2840776
aI2840894
aI2841158
aI2841614
aI2842271
aI2843544
aI2844373
aI2845448
aI2846720
aI2846849
aI2848728
aI2849942
aI2852386
aI2852563
aI2852574
aI2852652
aI2853066
aI2853746
aI2854584
aI2854990
aI2855429
aI2855647
aI2855813
aI2858143
aI2858467
aI2860472
aI2860514
aI2860804
aI2861374
aI2862393
aI2862748
aI2863685
aI2864594
aI2864889
aI2865379
aI2865586
aI2866089
aI2866659
aI2867573
aI2869621
aI2869846
aI2869848
aI2869876
aI2870338
aI2874144
aI2874247
aI2875323
aI2875655
aI2876613
aI2877144
aI2877621
aI2878221
aI2878249
aI2878339
aI2879985
aI2880071
aI2880210
aI2882095
aI2883560
aI2883895
aI2884247
aI2886056
aI2886819
aI2886841
aI2886875
aI2887502
aI2888036
aI2889387
aI2890373
aI2890967
aI2891808
aI2891835
aI2891867
aI2892752
aI2895962
aI2898263
aI2899251
aI2899442
aI2900365
aI2900890
aI2901407
aI2903366
aI2903942
aI2904656
aI2904855
aI2905559
aI2905937
aI2906593
aI2906898
aI2908740
aI2908990
aI2910124
aI2910262
aI2910860
aI2910956
aI2911423
aI2911479
aI2911528
aI2912882
aI2913956
aI2914365
aI2914449
aI2914556
aI2914708
aI2915610
aI2916072
aI2916163
aI2916235
aI2917867
aI2917907
aI2918964
aI2919057
aI2919104
aI2919343
aI2919356
aI2919358
aI2921372
aI2922006
aI2923343
aI2923348
aI2923830
aI2924070
aI2924846
aI2925223
aI2925470
aI2926050
aI2926322
aI2926735
aI2926786
aI2927695
aI2927856
aI2927995
aI2928076
aI2928437
aI2928672
aI2930337
aI2931173
aI2932285
aI2934625
aI2934964
aI2935112
aI2935925
aI2936180
aI2936891
aI2937138
aI2937675
aI2938031
aI2938586
aI2938852
aI2939038
aI2940201
aI2940264
aI2940607
aI2941287
aI2942099
aI2942203
aI2943903
aI2944140
aI2944283
aI2945342
aI2946598
aI2946773
aI2948431
aI2948633
aI2949821
aI2950186
aI2953765
aI2954789
aI2955302
aI2957003
aI2957721
aI2959836
aI2960027
aI2960158
aI2960236
aI2960499
aI2960510
aI2960930
aI2961012
aI2963288
aI2963549
aI2964868
aI2965136
aI2965299
aI2966695
aI2966697
aI2967578
aI2969579
aI2970851
aI2971004
aI2971324
aI2971716
aI2971963
aI2972037
aI2972703
aI2972872
aI2974086
aI2975594
aI2975921
aI2976980
aI2977080
aI2977090
aI2977890
aI2978259
aI2978309
aI2978344
aI2978387
aI2978450
aI2978599
aI2979269
aI2979283
aI2979545
aI2979783
aI2980401
aI2980923
aI2981075
aI2981966
aI2982526
aI2982590
aI2982953
aI2983443
aI2983661
aI2984224
aI2984637
aI2984945
aI2985192
aI2985326
aI2985658
aI2986146
aI2986285
aI2986835
aI2988737
aI2990511
aI2991050
aI2991976
aI2992476
aI2992630
aI2994125
aI2994286
aI2996044
aI2996307
aI2996455
aI2996485
aI2996896
aI2997007
aI2997371
aI2997437
aI2998389
aI2998855
aI2999874
aI3000169
aI3000527
aI3001178
aI3002303
aI3003218
aI3003230
aI3004860
aI3005093
aI3005211
aI3006291
aI3006401
aI3006413
aI3006499
aI3007065
aI3007257
aI3008207
aI3008749
aI3010088
aI3010274
aI3010523
aI3010705
aI3010826
aI3011247
aI3011519
aI3011681
aI3011864
aI3012088
aI3012860
aI3013449
aI3013516
aI3013698
aI3013713
aI3014928
aI3015467
aI3015792
aI3016726
aI3016789
aI3017511
aI3019255
aI3019511
aI3020089
aI3020247
aI3020697
aI3021106
aI3021369
aI3021385
aI3021409
aI3021679
aI3023289
aI3023426
aI3024842
aI3024866
aI3024983
aI3026580
aI3026764
aI3026925
aI3027792
aI3028089
aI3028101
aI3029051
aI3029329
aI3029883
aI3030023
aI3030919
aI3031460
aI3032216
aI3032808
aI3033689
aI3034467
aI3034900
aI3034905
aI3034971
aI3035305
aI3037688
aI3038086
aI3038778
aI3039522
aI3040988
aI3041725
aI3042459
aI3042671
aI3042755
aI3043028
aI3043137
aI3043455
aI3043487
aI3043522
aI3043651
aI3044295
aI3044671
aI3044694
aI3045236
aI3045388
aI3046423
aI3046764
aI3046965
aI3047589
aI3047803
aI3047867
aI3047890
aI3048065
aI3048284
aI3048343
aI3049259
aI3049457
aI3049520
aI3049818
aI3049834
aI3050499
aI3050530
aI3050533
aI3050821
aI3050831
aI3050857
aI3050922
aI3051403
aI3051932
aI3052472
aI3052812
aI3052978
aI3053010
aI3053274
aI3053275
aI3054035
aI3054081
aI3054230
aI3054502
aI3054604
aI3054904
aI3055111
aI3055462
aI3055806
aI3055845
aI3056168
aI3056173
aI3056285
aI3056913
aI3057068
aI3057147
aI3057403
aI3057805
aI3057920
aI3057921
aI3057980
aI3058162
aI3058278
aI3058496
aI3058501
aI3058735
aI3058762
aI3058771
aI3059311
aI3059390
aI3059774
aI3059857
aI3060319
aI3060392
aI3061443
aI3061535
aI3062686
aI3062699
aI3063571
aI3064035
aI3064626
aI3064671
aI3065229
aI3065293
aI3065982
aI3066228
aI3066525
aI3066544
aI3067354
aI3068142
aI3068290
aI3068656
aI3068746
aI3069306
aI3069315
aI3069754
aI3069772
aI3069774
aI3070403
aI3070698
aI3070769
aI3070849
aI3071386
aI3071429
aI3071567
aI3071980
aI3072228
aI3072451
aI3072666
aI3073069
aI3073121
aI3073122
aI3073554
aI3073601
aI3073766
aI3073808
aI3073887
aI3073911
aI3073914
aI3074862
aI3075213
aI3076629
aI3076876
aI3077323
aI3077698
aI3078107
aI3078224
aI3078276
aI3078324
aI3078448
aI3078555
aI3078697
aI3079225
aI3079228
aI3079391
aI3079556
aI3080156
aI3080451
aI3080629
aI3081225
aI3081333
aI3081402
aI3081478
aI3084146
aI3084164
aI3084190
aI3084370
aI3084463
aI3084483
aI3084614
aI3085029
aI3085066
aI3085072
aI3086388
aI3086518
aI3086640
aI3087490
aI3087563
aI3087661
aI3088708
aI3088870
aI3089068
aI3090201
aI3090325
aI3090346
aI3092511
aI3093627
aI3094058
aI3094616
aI3095067
aI3095368
aI3095384
aI3095606
aI3095750
aI3095946
aI3099109
aI3099264
aI3099375
aI3099389
aI3100690
aI3100893
aI3101634
aI3102130
aI3102548
aI3103490
aI3104647
aI3105788
aI3106503
aI3107201
aI3107365
aI3107400
aI3107677
aI3109052
aI3110347
aI3110555
aI3112764
aI3113544
aI3113938
aI3115254
aI3118669
aI3119504
aI3122240
aI3122322
aI3122663
aI3122882
aI3122919
aI3123246
aI3124875
aI3129416
aI3129493
aI3129753
aI3131412
aI3131449
aI3131823
aI3134533
aI3134652
aI3134878
aI3134884
aI3134928
aI3135104
aI3136154
aI3137323
aI3138880
aI3139408
aI3140399
aI3140446
aI3140515
aI3141021
aI3141458
aI3141876
aI3142561
aI3143571
aI3143860
aI3144086
aI3144347
aI3144711
aI3144836
aI3144882
aI3145096
aI3145504
aI3145623
aI3147077
aI3147156
aI3147322
aI3148134
aI3148854
aI3149660
aI3151203
aI3151273
aI3151902
aI3151917
aI3152803
aI3152943
aI3153579
aI3154315
aI3154492
aI3155173
aI3155883
aI3155987
aI3157117
aI3158218
aI3158520
aI3158586
aI3160307
aI3160660
aI3160907
aI3161491
aI3162049
aI3162529
aI3163433
aI3163477
aI3164428
aI3164766
aI3165238
aI3165900
aI3166108
aI3167591
aI3168213
aI3169389
aI3169391
aI3169944
aI3169965
aI3170066
aI3170368
aI3170568
aI3170895
aI3171151
aI3171258
aI3172334
aI3172538
aI3172793
aI3173741
aI3174256
aI3175129
aI3175395
aI3175954
aI3176358
aI3176487
aI3176853
aI3178961
aI3179578
aI3179642
aI3179722
aI3180697
aI3180894
aI3182363
aI3182803
aI3183077
aI3183101
aI3183122
aI3183746
aI3184202
aI3184468
aI3184875
aI3185192
aI3187496
aI3187586
aI3187731
aI3188615
aI3188714
aI3188934
aI3189243
aI3189561
aI3191252
aI3191623
aI3191846
aI3192862
aI3193083
aI3193342
aI3193801
aI3193889
aI3195941
aI3196800
aI3196879
aI3196961
aI3198136
aI3198268
aI3199270
aI3199468
aI3199568
aI3199682
aI3200186
aI3202261
aI3202561
aI3202923
aI3203320
aI3203806
aI3203875
aI3205170
aI3205356
aI3205658
aI3206928
aI3207413
aI3207525
aI3207549
aI3207882
aI3208187
aI3209182
aI3209414
aI3209506
aI3209543
aI3210263
aI3211136
aI3211146
aI3211175
aI3213119
aI3213251
aI3214655
aI3214808
aI3215277
aI3215889
aI3216696
aI3216918
aI3217358
aI3218024
aI3218844
aI3218869
aI3219353
aI3219479
aI3219555
aI3220350
aI3222403
aI3222655
aI3223956
aI3224286
aI3225822
aI3225875
aI3226206
aI3226233
aI3226638
aI3226942
aI3227672
aI3227911
aI3227928
aI3228513
aI3228819
aI3229485
aI3232334
aI3232350
aI3232613
aI3233536
aI3233834
aI3234753
aI3235179
aI3235796
aI3235998
aI3236330
aI3236403
aI3238561
aI3238877
aI3239380
aI3239568
aI3239753
aI3241411
aI3242185
aI3242787
aI3242912
aI3243170
aI3243225
aI3244187
aI3244647
aI3244977
aI3245004
aI3245710
aI3246292
aI3246464
aI3246574
aI3246819
aI3248810
aI3249005
aI3249602
aI3249715
aI3249853
aI3251434
aI3251490
aI3252905
aI3253173
aI3253320
aI3253592
aI3255154
aI3255822
aI3256581
aI3257861
aI3258814
aI3259759
aI3259821
aI3260118
aI3260923
aI3261369
aI3261954
aI3262191
aI3263452
aI3263548
aI3263917
aI3264336
aI3264383
aI3264385
aI3264554
aI3265229
aI3266228
aI3268790
aI3270911
aI3272431
aI3272482
aI3272781
aI3273107
aI3273137
aI3274046
aI3275015
aI3276458
aI3276685
aI3276875
aI3276974
aI3279545
aI3279713
aI3280230
aI3282288
aI3282302
aI3282385
aI3282867
aI3282879
aI3283148
aI3283457
aI3283528
aI3283538
aI3284518
aI3287062
aI3287219
aI3288603
aI3288766
aI3289173
aI3291640
aI3291782
aI3291987
aI3294056
aI3294526
aI3295580
aI3296000
aI3297706
aI3297707
aI3297916
aI3299069
aI3300178
aI3301614
aI3301937
aI3303625
aI3304581
aI3306113
aI3306710
aI3308260
aI3309392
aI3309515
aI3309872
aI3310049
aI3310294
aI3312984
aI3313773
aI3315138
aI3315269
aI3316883
aI3317805
aI3317902
aI3318009
aI3318090
aI3320412
aI3321930
aI3322787
aI3323605
aI3324319
aI3324415
aI3324491
aI3324773
aI3325507
aI3325709
aI3327191
aI3329273
aI3329326
aI3331200
aI3331376
aI3331379
aI3331402
aI3332107
aI3332353
aI3332920
aI3333255
aI3334468
aI3334480
aI3334922
aI3335879
aI3337359
aI3337362
aI3337851
aI3338939
aI3338943
aI3339117
aI3339222
aI3339281
aI3339446
aI3339533
aI3339794
aI3341019
aI3341563
aI3341821
aI3341868
aI3343155
aI3344028
aI3344341
aI3345220
aI3347317
aI3352566
aI3356012
aI3356809
aI3357542
aI3359264
aI3359419
aI3360006
aI3360158
aI3360302
aI3360400
aI3360588
aI3362596
aI3362811
aI3366860
aI3368500
aI3368846
aI3369130
aI3369179
aI3369314
aI3369338
aI3371517
aI3372488
aI3373009
aI3373144
aI3377083
aI3377843
aI3379556
aI3379634
aI3379911
aI3382132
aI3382831
aI3383580
aI3383597
aI3383602
aI3383794
aI3384452
aI3384828
aI3389402
aI3389689
aI3390675
aI3390799
aI3391605
aI3394212
aI3394473
aI3394557
aI3395871
aI3396920
aI3401323
aI3402465
aI3404952
aI3405531
aI3407980
aI3408310
aI3409560
aI3410006
aI3410239
aI3410349
aI3412329
aI3412331
aI3412765
aI3412860
aI3413534
aI3413596
aI3413698
aI3414425
aI3415266
aI3417966
aI3418247
aI3418973
aI3418992
aI3419038
aI3419324
aI3419366
aI3420882
aI3420969
aI3422141
aI3423263
aI3423379
aI3423994
aI3425786
aI3426855
aI3426892
aI3426940
aI3427738
aI3428618
aI3428786
aI3429241
aI3429391
aI3430489
aI3430900
aI3431291
aI3431296
aI3431884
aI3432522
aI3432584
aI3432708
aI3432854
aI3432856
aI3432941
aI3434659
aI3437377
aI3438291
aI3438876
aI3439708
aI3439847
aI3440354
aI3440864
aI3441129
aI3441332
aI3441916
aI3442680
aI3442729
aI3443258
aI3443354
aI3444815
aI3445425
aI3446194
aI3446516
aI3446647
aI3449118
aI3449281
aI3449532
aI3451109
aI3452746
aI3453800
aI3455168
aI3455263
aI3455481
aI3455614
aI3457456
aI3459295
aI3459540
aI3459755
aI3463358
aI3463591
aI3464734
aI3466233
aI3466942
aI3468630
aI3468647
aI3469711
aI3471126
aI3471218
aI3471221
aI3471922
aI3472257
aI3472624
aI3474131
aI3474565
aI3475636
aI3475950
aI3476164
aI3479314
aI3480021
aI3481439
aI3481613
aI3483489
aI3483881
aI3484494
aI3485584
aI3487467
aI3489591
aI3490011
aI3490060
aI3490732
aI3491384
aI3491422
aI3494414
aI3495255
aI3496380
aI3496538
aI3499054
aI3500263
aI3501283
aI3505594
aI3508199
aI3509495
aI3510242
aI3510461
aI3510942
aI3511040
aI3511052
aI3514015
aI3515097
aI3517362
aI3517864
aI3518426
aI3519104
aI3519243
aI3519344
aI3520600
aI3522698
aI3522987
aI3523158
aI3523264
aI3523493
aI3524179
aI3524580
aI3524730
aI3525505
aI3525827
aI3526587
aI3527311
aI3527811
aI3528568
aI3531756
aI3532883
aI3534495
aI3534877
aI3537369
aI3537905
aI3539304
aI3542872
aI3544933
aI3545802
aI3545910
aI3548455
aI3551714
aI3553096
aI3553381
aI3553812
aI3554008
aI3554264
aI3555854
aI3556352
aI3556661
aI3557317
aI3558070
aI3560188
aI3560297
aI3560582
aI3561605
aI3561743
aI3564348
aI3565598
aI3567483
aI3568369
aI3569299
aI3569392
aI3570400
aI3571175
aI3571787
aI3573268
aI3573584
aI3579924
aI3580274
aI3582760
aI3583331
aI3583396
aI3584825
aI3585816
aI3585854
aI3585979
aI3586380
aI3587514
aI3587805
aI3589108
aI3589601
aI3589955
aI3590299
aI3590938
aI3591007
aI3591479
aI3595384
aI3595576
aI3596667
aI3596847
aI3597736
aI3598705
aI3599294
aI3600434
aI3601049
aI3603625
aI3604081
aI3605532
aI3605688
aI3609875
aI3610349
aI3611827
aI3612205
aI3612744
aI3613254
aI3614374
aI3615333
aI3616335
aI3617719
aI3619796
aI3621173
aI3621259
aI3621763
aI3622668
aI3624225
aI3624437
aI3625438
aI3625655
aI3626912
aI3628193
aI3628800
aI3629601
aI3631261
aI3633333
aI3635569
aI3636092
aI3636295
aI3641592
aI3642657
aI3642846
aI3643221
aI3643383
aI3646719
aI3647300
aI3648224
aI3648630
aI3652183
aI3653473
aI3654130
aI3655181
aI3656205
aI3657094
aI3661663
aI3661708
aI3663012
aI3664248
aI3664698
aI3665902
aI3667419
aI3668336
aI3669809
aI3670372
aI3671103
aI3671619
aI3672861
aI3673770
aI3675237
aI3675580
aI3676374
aI3678192
aI3679779
aI3681828
aI3683009
aI3683921
aI3683998
aI3684288
aI3685113
aI3687435
aI3687956
aI3692166
aI3693910
aI3693929
aI3695333
aI3695912
aI3696500
aI3696948
aI3696999
aI3697031
aI3698852
aI3701024
aI3702710
aI3703562
aI3703564
aI3704529
aI3704667
aI3704917
aI3705481
aI3706427
aI3706874
aI3707992
aI3708380
aI3708751
aI3709803
aI3710069
aI3710904
aI3712165
aI3712527
aI3716669
aI3717160
aI3717789
aI3718116
aI3718742
aI3720599
aI3720886
aI3721639
aI3721927
aI3721931
aI3723311
aI3723494
aI3723675
aI4001597
aI4001681
aI4002727
aI4005199
aI4005471
aI4006794
aI4006796
aI4006994
aI4007034
aI4008510
aI4009992
aI4010444
aI4010529
aI4011317
aI4011822
aI4011945
aI4013293
aI4014593
aI4014789
aI4016310
aI4016580
aI4018070
aI4018133
aI4018173
aI4021399
aI4021454
aI4021555
aI4021668
aI4022258
aI4023285
aI4023458
aI4023786
aI4023964
aI4024323
aI4026707
aI4028238
aI4028913
aI4030356
aI4030461
aI4030644
aI4032502
aI4033856
aI4036131
aI4037312
aI4039738
aI4041035
aI4041938
aI4041993
aI4042392
aI4045600
aI4045954
aI4046052
aI4046160
aI4046782
aI4050942
aI4051458
aI4053033
aI4053922
aI4054415
aI4056353
aI4063008
aI4063521
aI4066619
aI4068971
aI4070291
aI4071790
aI4073312
aI4075349
aI4075398
aI4076030
aI4077019
aI4077172
aI4077261
aI4077836
aI4079696
aI4082014
aI4082679
aI4087060
aI4087281
aI4087780
aI4087878
aI4090182
aI4090205
aI4090303
aI4090505
aI4090579
aI4091591
aI4091733
aI4092895
aI4093366
aI4093400
aI4095637
aI4096269
aI4097731
aI4099138
aI4101238
aI4102275
aI4103095
aI4104175
aI4104530
aI4105227
aI4106305
aI4109263
aI4110275
aI4110949
aI4112185
aI4112609
aI4113933
aI4115374
aI4116043
aI4116146
aI4117602
aI4118060
aI4121217
aI4122202
aI4122472
aI4126627
aI4126657
aI4127430
aI4127805
aI4129340
aI4129416
aI4129841
aI4131226
aI4131475
aI4131544
aI4131628
aI4133143
aI4137376
aI4138668
aI4139484
aI4140823
aI4143402
aI4144014
aI4144315
aI4144581
aI4144767
aI4145142
aI4145145
aI4145465
aI4146990
aI4147483
aI4148658
aI4148795
aI4148840
aI4148922
aI4150112
aI4150446
aI4150934
aI4151178
aI4151179
aI4151182
aI4151404
aI4154040
aI4154626
aI4156656
aI4159161
aI4163139
aI4164979
aI4165477
aI4171585
aI4172379
aI4172404
aI4172457
aI4178378
aI4180195
aI4181811
aI4182909
aI4183536
aI4189499
aI4189870
aI4192472
aI4193537
aI4194686
aI4197094
aI4197548
aI4197804
aI4199025
aI4202993
aI4203176
aI4203209
aI4203683
aI4203822
aI4204871
aI4205688
aI4206911
aI4208064
aI4208073
aI4208652
aI4209512
aI4210433
aI4210878
aI4212142
aI4213900
aI4214652
aI4214763
aI4215108
aI4215216
aI4216824
aI4217551
aI4219155
aI4220053
aI4220780
aI4221598
aI4223958
aI4227133
aI4227441
aI4229552
aI4232182
aI4232398
aI4232428
aI4234406
aI4234423
aI4234690
aI4238378
aI4243521
aI4246017
aI4246200
aI4251431
aI4254546
aI4255135
aI4255223
aI4257016
aI4257396
aI4258891
aI4261244
aI4264510
aI4265943
aI4268068
aI4268437
aI4268732
aI4268862
aI4269183
aI4270093
aI4273502
aI4273648
aI4273981
aI4275290
aI4275636
aI4276393
aI4277529
aI4279454
aI4284500
aI4284586
aI4285139
aI4288107
aI4295095
aI4295360
aI4296339
aI4296744
aI4296776
aI4297389
aI4297411
aI4297632
aI4302548
aI4302945
aI4304369
aI4304670
aI4305759
aI4306202
aI4307028
aI4309322
aI4310254
aI4310592
aI4310793
aI4310849
aI4312450
aI4315284
aI4315846
aI4318080
aI4319559
aI4321465
aI4322697
aI4323203
aI4323585
aI4323930
aI4325663
aI4326429
aI4326880
aI4329730
aI4329821
aI4332317
aI4332369
aI4332593
aI4332674
aI4332806
aI4333661
aI4333860
aI4335290
aI4335917
aI4337260
aI4337614
aI4338458
aI4339086
aI4339738
aI4342029
aI4346095
aI4348221
aI4348308
aI4348452
aI4348881
aI4352302
aI4353450
aI4353463
aI4356472
aI4358714
aI4361728
aI4361843
aI4361879
aI4363118
aI4363936
aI4364014
aI4365406
aI4366285
aI4371287
aI4372253
aI4376140
aI4378180
aI4378751
aI4378977
aI4380339
aI4381660
aI4382088
aI4382906
aI4382918
aI4384139
aI4384723
aI4386024
aI4387040
aI4389972
aI4390455
aI4391608
aI4391808
aI4392554
aI4394635
aI4396818
aI4399594
aI4402440
aI4403910
aI4405094
aI4409118
aI4409160
aI4409226
aI4410181
aI4410854
aI4411406
aI4415747
aI4416139
aI4417598
aI4419529
aI4422863
aI4423802
aI4424659
aI4425989
aI4426500
aI4428009
aI4435161
aI4435212
aI4437011
aI4437786
aI4439100
aI4439647
aI4440282
aI4440417
aI4449458
aI4450027
aI4450175
aI4453981
aI4454072
aI4457657
aI4458841
aI4462145
aI4463061
aI4463093
aI4464598
aI4467112
aI4477408
aI4479894
aI4480391
aI4480982
aI4481801
aI4484966
aI4485729
aI4485867
aI4487798
aI4487868
aI4490365
aI4491870
aI4492859
aI4492933
aI4496472
aI4499075
aI4499366
aI4502078
aI4503355
aI4504123
aI4509453
aI4509684
aI4509760
aI4511680
aI4512422
aI4515106
aI4515472
aI4515851
aI4516721
aI4517426
aI4517765
aI4519005
aI4520079
aI4520566
aI4521094
aI4523995
aI4534830
aI4535093
aI4535379
aI4537048
aI4539613
aI4540406
aI4540492
aI4541565
aI4541692
aI4542077
aI4545259
aI4546957
aI4548787
aI4548863
aI4549100
aI4549518
aI4550162
aI4550811
aI4550914
aI4551508
aI4552361
aI4552564
aI4553410
aI4554415
aI4554444
aI4554965
aI4555645
aI4556408
aI4557669
aI4558040
aI4558810
aI4559399
aI4560832
aI4562632
aI4564513
aI4569639
aI4570252
aI4570733
aI4572051
aI4572074
aI4572168
aI4572848
aI4573091
aI4574170
aI4574997
aI4575677
aI4576331
aI4577610
aI4578405
aI4578451
aI4578645
aI4586200
aI4591700
aI4595981
aI4596082
aI4596913
aI4597608
aI4598036
aI4603632
aI4604273
aI4605366
aI4605472
aI4605967
aI4607650
aI4610469
aI4611621
aI4611949
aI4613962
aI4614220
aI4614229
aI4616784
aI4617453
aI4621384
aI4622431
aI4623003
aI4625461
aI4627238
aI4631003
aI4633744
aI4634847
aI4635442
aI4635883
aI4638074
aI4638228
aI4638532
aI4640134
aI4640178
aI4640197
aI4641318
aI4643504
aI4644094
aI4644566
aI4644815
aI4645189
aI4645200
aI4648302
aI4650027
aI4653535
aI4653953
aI4654699
aI4655175
aI4655476
aI4656146
aI4659505
aI4659855
aI4662579
aI4663755
aI4664241
aI4674602
aI4677188
aI4679591
aI4680401
aI4681220
aI4681574
aI4683013
aI4687631
aI4690596
aI4691112
aI4691722
aI4695271
aI4700418
aI4701134
aI4701192
aI4701322
aI4701536
aI4702576
aI4707745
aI4711613
aI4712019
aI4715185
aI4715643
aI4715674
aI4719188
aI4719324
aI4720975
aI4724969
aI4726102
aI4726697
aI4727781
aI4728559
aI4729140
aI4730644
aI4736798
aI4736875
aI4738229
aI4739956
aI4741394
aI4742445
aI4751001
aI4758762
aI4759339
aI4762791
aI4764229
aI4770622
aI4774049
aI4774760
aI4779189
aI4781067
aI4785146
aI4787864
aI4787866
aI4788685
aI4791446
aI4791666
aI4795925
aI4797264
aI4797270
aI4797278
aI4802783
aI4802864
aI4804289
aI4804960
aI4806567
aI4813561
aI4817196
aI4819700
aI4820054
aI4821244
aI4824145
aI4825882
aI4833507
aI4833955
aI4835094
aI4837247
aI4838642
aI4845685
aI4847625
aI4847719
aI4848420
aI4851542
aI4852058
aI4855205
aI4856743
aI4859859
aI4863583
aI4863929
aI4864272
aI4865219
aI4866215
aI4866907
aI4867100
aI4867663
aI4871504
aI4878211
aI4881891
aI4883875
aI4885369
aI4887641
aI4887664
aI4887810
aI4890666
aI4890968
aI4890999
aI4894407
aI4895289
aI4895609
aI4896073
aI4898755
aI4898827
aI4902917
aI4905133
aI4908441
aI4914550
aI4916879
aI4916938
aI4917351
aI4917539
aI4919404
aI4919472
aI4922969
aI4928934
aI4929332
aI4932180
aI4933268
aI4933774
aI4934456
aI4935795
aI4940480
aI4942405
aI4946163
aI4949206
aI4954031
aI4954303
aI4957191
aI4957259
aI4957310
aI4957945
aI4960506
aI4961761
aI4962796
aI4963736
aI4965758
aI4971541
aI4980466
aI4980993
aI4987245
aI4987328
aI4987564
aI4991439
aI4992928
aI4998368
aI4999695
aI5006141
aI5010135
aI5015858
aI5016584
aI5020039
aI5020415
aI5020774
aI5024142
aI5025436
aI5027642
aI5028388
aI5029263
aI5031934
aI5034115
aI5035206
aI5035614
aI5036499
aI5038131
aI5041673
aI5043109
aI5046675
aI5047057
aI5053739
aI5058538
aI5061971
aI5062065
aI5062548
aI5063098
aI5063579
aI5064945
aI5066131
aI5067951
aI5068059
aI5070888
aI5074370
aI5075156
aI5076298
aI5079779
aI5080341
aI5081809
aI5082677
aI5083082
aI5083391
aI5086137
aI5087262
aI5089171
aI5090474
aI5090507
aI5097963
aI5102308
aI5105999
aI5106826
aI5111786
aI5114093
aI5114679
aI5115852
aI5117147
aI5120682
aI5121040
aI5121295
aI5122205
aI5126029
aI5128027
aI5129059
aI5130091
aI5130396
aI5131249
aI5134095
aI5137027
aI5141159
aI5141970
aI5142532
aI5143495
aI5144590
aI5147054
aI5148343
aI5150419
aI5150535
aI5150831
aI5153410
aI5159560
aI5160026
aI5161476
aI5162240
aI5162536
aI5165853
aI5167125
aI5173797
aI5176686
aI5176736
aI5176964
aI5177192
aI5177456
aI5179153
aI5180392
aI5181545
aI5181596
aI5186666
aI5187761
aI5190470
aI5192020
aI5196090
aI5196977
aI5197424
aI5205792
aI5207860
aI5210037
aI5215604
aI5216071
aI5220230
aI5222022
aI5224881
aI5228239
aI5231999
aI5232802
aI5232806
aI5235826
aI5236579
aI5237105
aI5238974
aI5240011
aI5242217
aI5243386
aI5243881
aI5244455
aI5244867
aI5245228
aI5246946
aI5250579
aI5253425
aI5258388
aI5262193
aI5263736
aI5263883
aI5267154
aI5269251
aI5270668
aI5270742
aI5271597
aI5273424
aI5277813
aI5279899
aI5281283
aI5281607
aI5283417
aI5285073
aI5287795
aI5289430
aI5291079
aI5294675
aI5295304
aI5299100
aI5301620
aI5304260
aI5305335
aI5305392
aI5307888
aI5310618
aI5314388
aI5315769
aI5320140
aI5321163
aI5322372
aI5334018
aI5337344
aI5338318
aI5344102
aI5344141
aI5344842
aI5355193
aI5359973
aI5365236
aI5368031
aI5368613
aI5368695
aI5368843
aI5379916
aI5380205
aI5384680
aI5386018
aI5390780
aI5392080
aI5396948
aI5411365
aI5416493
aI5417207
aI5419033
aI5419041
aI5422111
aI5423832
aI5424748
aI5429293
aI5436334
aI5438361
aI5438829
aI5438881
aI5443219
aI5443961
aI5444343
aI5446447
aI5452172
aI5454954
aI5456765
aI5458105
aI5458273
aI5466733
aI5470876
aI5472431
aI5472871
aI5476224
aI5476539
aI5481217
aI5481334
aI5481764
aI5584598
aI5584793
aI5587019
aI5591624
aI5592199
aI5592295
aI5593834
aI5593869
aI5593884
aI5595622
aI5597729
aI5601959
aI5602870
aI6604987
aI6610556
aI6614320
aI6619125
aI6620467
aI6624422
aI6625026
aI6627427
aI6633306
aI6633655
aI6636892
aI6636938
aI6642955
aI6646383
aI6648854
aI6652316
aI6653532
aI6657170
aI6659752
aI6664503
aI6674014
aI6675068
aI6676042
aI6678829
aI6679563
aI6681646
aI6681789
aI6682515
aI6684838
aI6687481
aI6690771
aI6699080
aI6701256
aI6705877
aI6707207
aI6707247
aI6709375
aI6719191
aI6720153
aI6727156
aI6730860
aI6732449
aI6738632
aI6740364
aI6741255
aI6741628
aI6743688
aI6745903
aI6750201
aI6752387
aI6755461
aI6755841
aI6757531
aI6760162
aI6763436
aI6764449
aI6765691
aI6767332
aI6771394
aI6776376
aI6777277
aI6777405
aI6779174
aI6780082
aI6780503
aI6781113
aI6784440
aI6785169
aI6785559
aI6785730
aI6786041
aI6787359
aI6788760
aI6789084
aI6789227
aI6794352
aI6795416
aI6800477
aI6804651
aI6806974
aI6811998
aI6814345
aI6814409
aI6818104
aI6819503
aI6821335
aI6826472
aI6828310
aI6832380
aI6832654
aI6834535
aI6836168
aI6838440
aI6841225
aI6843325
aI6843995
aI6844658
aI6844888
aI6845053
aI6845236
aI6845648
aI6845945
aI6846139
aI6846218
aI6846455
aI6846732
aI6846734
aI6846759
aI6846935
aI6847498
aI6847639
aI6847742
aI6847744
aI6848702
aI6848804
aI6848806
aI6848820
aI6850686
aI6852607
aI6861724
aI6863627
aI6865625
aI6866570
aI6868270
aI6870608
aI6872514
aI6876311
aI6881335
aI6881712
aI6882140
aI6894889
aI6896215
aI6897644
aI6897807
aI6897842
aI6898006
aI6898778
aI6899319
aI6900082
aI6901066
aI6901350
aI6905488
aI6908192
aI6912047
aI6916684
aI6916889
aI6924525
aI6925441
aI6928109
aI6929205
aI6930076
aI6931597
aI6934676
aI6938072
aI6938364
aI6939870
aI6939918
aI6945069
aI6950560
aI6957741
aI6957776
aI6959192
aI6960402
aI6964973
aI6966226
aI6971839
aI6973102
aI6973937
aI6974348
aI6975850
aI6979445
aI6980509
aI6981228
aI6983449
aI6984946
aI6995834
aI7005304
aI7006130
aI7006779
aI7009908
aI7011576
aI7015181
aI7017084
aI7017134
aI7022375
aI7023009
aI7025460
aI7025553
aI7031109
aI7035895
aI7036052
aI7038603
aI7039759
aI7043715
aI7046942
aI7051290
aI7051868
aI7056032
aI7057115
aI7058309
aI7059810
aI7065948
aI7069877
aI7075139
aI7076570
aI7083375
aI7085853
aI7087791
aI7087881
aI7088546
aI7090750
aI7093961
aI7093975
aI7096216
aI7098913
aI7100662
aI7101285
aI7103241
aI7103516
aI7105600
aI7106116
aI7106410
aI7109254
aI7111368
aI7123598
aI7130947
aI7134075
aI7135375
aI7140439
aI7148283
aI7148682
aI7149024
aI7150318
aI7154386
aI7154712
aI7155774
aI7156080
aI7159984
aI7161320
aI7161424
aI7163562
aI7165887
aI7173506
aI7174816
aI7186643
aI7186777
aI7187082
aI7189148
aI7191007
aI7193404
aI7195028
aI7196444
aI7201149
aI7201414
aI7201460
aI7202015
aI7204476
aI7206349
aI7208314
aI7211094
aI7216310
aI7218365
aI7219622
aI7224372
aI7224860
aI7227375
aI7231531
aI7234810
aI7236207
aI7243465
aI7244930
aI7246196
aI7248238
aI7248633
aI7251846
aI7256400
aI7265704
aI7272020
aI7273011
aI7273214
aI7274053
aI7276457
aI7278515
aI7280043
aI7285155
aI7290173
aI7294340
aI7297664
aI7305369
aI7312103
aI7315821
aI7316085
aI7321778
aI7325815
aI7326969
aI7338065
aI7343035
aI7343923
aI7355111
aI7362280
aI7372055
aI7382140
aI7384765
aI7389302
aI7393905
aI7403839
aI7406283
aI7410041
aI7412041
aI7415117
aI7419961
aI7420345
aI7420546
aI7420933
aI7423418
aI7436659
aI7445146
aI7453584
aI7455235
aI7457793
aI7459952
aI7464710
aI7476597
aI7476828
aI7530372
aI7536892
aI7538728
aI7551915
aI7552253
aI7569962
aI7574441
aI7576292
aI7588420
aI7609416
aI7622433
aI7624981
aI7628574
aI7639477
aI7640156
aI7641731
aI7645016
aI7650451
aI7654647
aI7657653
aI7659909
aI7663574
aI7666122
aI7675344
aI7678122
aI7679849
aI7683252
aI7684472
aI7686161
aI7689233
aI7690796
aI7693518
aI7697223
aI7697714
aI7700951
aI7701453
aI7704922
aI7710188
aI7710845
aI7710971
aI7710981
aI7712073
aI7712210
aI7716946
aI7719858
aI7719936
aI7721193
aI7721509
aI7723689
aI7737140
aI7738915
aI7739417
aI7747661
aI7749081
aI7750100
aI7750410
aI7755983
aI7759300
aI7760228
aI7760319
aI7762880
aI7764149
aI7764158
aI7771362
aI7777520
aI7781797
aI7788464
aI7788739
aI7789317
aI7799425
aI7799495
aI7804803
aI7805631
aI7806514
aI7806912
aI7807396
aI7810226
aI7815779
aI7816105
aI7826989
aI7827038
aI7828408
aI7830178
aI7831644
aI7833705
aI7843274
aI7848046
aI7852722
aI7855490
aI7860284
aI7860538
aI7863308
aI7868451
aI7869516
aI7872583
aI7876946
aI7877538
aI7877916
aI7879598
aI7883284
aI7886643
aI7897167
aI7897401
aI7908676
aI7914208
aI7915081
aI7915766
aI7927028
aI7927321
aI7928527
aI7929527
aI7929583
aI7929778
aI7941513
aI7941868
aI7958718
aI7988006
aI8005484
aI8009625
aI8014557
aI8015364
aI8016772
aI8019559
aI8022295
aI8022366
aI8023514
aI8029692
aI8038716
aI8044017
aI8045698
aI8047906
aI8051360
aI8051989
aI8056056
aI8056133
aI8056286
aI8058820
aI8068572
aI8075491
aI8077630
aI8080740
aI8086722
aI8090804
aI8092230
aI8092530
aI8096338
aI8103471
aI8107177
aI8112781
aI8112945
aI8113426
aI8120154
aI8123084
aI8126301
aI8129492
aI8130401
aI8140104
aI8143582
aI8144996
aI8146269
aI8149537
aI8152619
aI8154142
aI8156532
aI8157133
aI8157225
aI8162462
aI8162586
aI8163041
aI8169627
aI8176157
aI8179827
aI8183750
aI8189908
aI8190966
aI8192241
aI8195239
aI8196409
aI8201940
aI8203523
aI8212214
aI8216039
aI8217706
aI8225524
aI8227029
aI8231491
aI8231762
aI8235939
aI8237970
aI8240799
aI8245118
aI8245975
aI8262630
aI8267124
aI8267928
aI8270143
aI8271212
aI8271227
aI8273549
aI8280059
aI8291348
aI8293747
aI8305277
aI8315310
aI8322384
aI8333415
aI8338665
aI8340840
aI8340861
aI8350570
aI8353270
aI8354040
aI8354519
aI8357909
aI8360282
aI8365406
aI8385080
aI8397389
aI8407068
aI8412867
aI8418827
aI8422427
aI8423121
aI8425677
aI8432277
aI8432316
aI8432447
aI8437059
aI8442523
aI8442529
aI8443884
aI8452498
aI8454679
aI8460909
aI8465961
aI8465965
aI8472644
aI8472916
aI8477818
aI8479833
aI8489636
aI8490783
aI8491127
aI8495521
aI8499184
aI8508942
aI8511576
aI8514430
aI8514494
aI8518776
aI8524568
aI8530445
aI8533635
aI8537524
aI8552759
aI8557566
aI8558155
aI8558683
aI8559236
aI8561315
aI8561550
aI8564456
aI8569661
aI8569841
aI8572480
aI8575961
aI8576257
aI8576904
aI8577898
aI8578213
aI8584749
aI8597274
aI8597697
aI8601921
aI8604686
aI8611682
aI8613873
aI8616763
aI8617077
aI8619980
aI8622733
aI8632550
aI8633930
aI8635544
aI8642842
aI8644843
aI8665428
aI8666681
aI8677107
aI8678240
aI8678307
aI8678896
aI8680579
aI8681932
aI8683749
aI8686105
aI8718152
aI8720796
aI8724437
aI8730605
aI8734471
aI8749723
aI8750438
aI8754857
aI8757106
aI8757622
aI8759376
aI8760683
aI8772763
aI8778824
aI8788338
aI8789939
aI8793333
aI8795491
aI8795983
aI8803683
aI8804356
aI8807479
aI8811474
aI8832138
aI8839399
aI8843288
aI8844048
aI8846358
aI8851412
aI8854111
aI8855132
aI8857652
aI8859533
aI8860924
aI8875081
aI8883719
aI8887630
aI8888096
aI8888364
aI8888757
aI8889562
aI8894313
aI8898355
aI8907141
aI8923572
aI8944169
aI8969692
aI8981897
aI8990857
aI8994995
aI9006186
aI9012998
aI9015184
aI9018448
aI9030355
aI9034813
aI9039077
aI9043011
aI9043031
aI9048876
aI9053185
aI9057888
aI9063198
aI9074287
aI9082755
aI9094496
aI9102635
aI9102991
aI9109558
aI9112868
aI9116163
aI9118589
aI9122596
aI9122661
aI9133673
aI9134000
aI9134363
aI9135967
aI9140929
aI9147263
aI9156234
aI9186819
aI9187079
aI9190535
aI9196353
aI9202256
aI9204549
aI9208292
aI9208478
aI9213100
aI9216352
aI9222273
aI9222518
aI9223360
aI9226100
aI9227918
aI9229368
aI9237132
aI9241148
aI9271451
aI9275322
aI9276641
aI9283837
aI9287050
aI9289340
aI9292060
aI9294815
aI9299215
aI9306248
aI9306404
aI9307234
aI9316300
aI9323609
aI9327314
aI9329468
aI9338187
aI9338188
aI9344803
aI9354942
aI9367359
aI9378167
aI9381229
aI9382276
aI9390304
aI9390893
aI9403181
aI9403549
aI9405865
aI9407198
aI9409557
aI9415289
aI9455189
aI9458477
aI9477345
aI9498879
aI9503854
aI9505978
aI9517175
aI9518126
aI9523002
aI9531294
aI9537521
aI9542698
aI9559021
aI9567021
aI9575232
aI9580585
aI9594518
aI9595302
aI9597762
aI9602415
aI9603079
aI9605885
aI9608946
aI9611300
aI9614408
aI9620619
aI9627286
aI9628356
aI9631038
aI9640658
aI9640660
aI9648443
aI9650401
aI9653396
aI9657617
aI9687669
aI9690610
aI9691312
aI9703803
aI9716887
aI9718973
aI9721395
aI9724300
aI9748622
aI9748955
aI9756791
aI9759804
aI9767761
aI9796530
aI9807927
aI9821669
aI9822147
aI9825498
aI9834440
aI9835026
aI9839960
aI9840084
aI9845956
aI9852725
aI9853974
aI9877070
aI9878795
aI9880227
aI9880548
aI9886297
aI9890043
aI9896796
aI9899719
aI9901813
aI9929412
aI9950008
aI9961033
aI9968570
aI9975708
aI9990147
aI10000590
aI10003362
aI10011632
aI10019106
aI10025996
aI10026168
aI10033177
aI10035288
aI10039189
aI10052333
aI10058578
aI10068031
aI10077576
aI10083668
aI10089767
aI10091176
aI10093494
aI10106692
aI10112509
aI10124332
aI10126802
aI10129607
aI10151606
aI10151950
aI10153766
aI10154731
aI10156809
aI10160844
aI10160861
aI10164646
aI10164979
aI10168730
aI10172829
aI10182392
aI10182398
aI10187224
aI10207095
aI10207319
aI10211693
aI10214751
aI10220615
aI10225057
aI10238519
aI10270118
aI10277223
aI10286703
aI10290404
aI10307076
aI10307251
aI10316919
aI10317541
aI10317834
aI10318234
aI10322855
aI10328363
aI10351463
aI10351667
aI10351812
aI10356323
aI10359701
aI10376031
aI10376223
aI10377977
aI10383781
aI10400030
aI10432110
aI10459124
aI10469682
aI10471347
aI10482250
aI10491880
aI10493509
aI10495002
aI10498242
aI10507258
aI10555226
aI10561112
aI10581918
aI10582850
aI10588496
aI10591095
aI10613657
aI10615787
aI10626451
aI10628992
aI10638469
aI10644413
aI10651742
aI10656135
aI10673609
aI10684881
aI10705247
aI10713244
aI10734350
aI10747613
aI10827811
aI10831781
aI10838786
aI10841212
aI10853303
aI10853587
aI10867313
aI10897268
aI10901077
aI10952081
aI10987926
aI11013159
aI11020927
aI11023019
aI11032832
aI11034899
aI11040613
aI11044308
aI11045259
aI11063341
aI11069953
aI11073502
aI11114714
aI11124725
aI11133842
aI11133984
aI11148026
aI11179365
aI11181038
aI11190049
aI11199917
aI11202603
aI11203719
aI11203740
aI11229435
aI11237495
aI11239513
aI11239796
aI11258049
aI11273642
aI11278863
aI11290339
aI11293775
aI11300290
aI11321512
aI11331107
aI11349360
aI11360969
aI11382716
aI11417632
aI11418262
aI11436947
aI11479711
aI11480738
aI11504973
aI11505594
aI11523656
aI11526629
aI11541855
aI11556920
aI11564581
aI11568045
aI11571699
aI11610890
aI11619387
aI11624952
aI11646142
aI11652165
aI11653465
aI11678526
aI11679316
aI11690429
aI11690716
aI11696960
aI11697085
aI11697622
aI11708839
aI11726259
aI11741339
aI11744236
aI11753320
aI11768212
aI11778536
aI11811867
aI11818927
aI11827917
aI11843669
aI11848678
aI11852290
aI11854648
aI11871638
aI11876374
aI11879700
aI11890920
aI11902444
aI11914045
aI11921369
aI11931924
aI11948963
aI11967152
aI12011776
aI12030390
aI12050271
aI12077026
aI12094010
aI12106864
aI12123855
aI12130310
aI12149614
aI12168896
aI12181743
aI12236064
aI12251041
aI12259840
aI12260235
aI12300285
aI12326902
aI12342323
aI12356670
aI12357198
aI12386948
aI12387126
aI12391396
aI12407815
aI12411417
aI12454575
aI12454887
aI12455056
aI12456612
aI12461022
aI12497314
aI12498070
aI12520762
aI12529556
aI12531959
aI12537268
aI12557201
aI12577156
aI12605689
aI12607020
aI12609964
aI12617810
aI12618240
aI12630127
aI12659089
aI12659942
aI12662070
aI12674043
aI12677337
aI12679382
aI12685522
aI12702754
aI12714671
aI12724966
aI12727193
aI12733545
aI12765337
aI12771096
aI12771789
aI12772555
aI12774242
aI12804635
aI12831370
aI12857092
aI12897188
aI12897307
aI12905271
aI12939716
aI12945694
aI12957503
aI12981709
aI12981710
aI12981723
aI12981726
aI12984707
aI12985977
aI12987380
aI12998090
aI13016351
aI13030486
aI13075646
aI13123058
aI13125183
aI13126855
aI13139586
aI13184726
aI13190241
aI13193708
aI13223956
aI13237027
aI13291821
aI13292809
aI13314446
aI13315968
aI13316915
aI13374355
aI13392420
aI13392426
aI13392427
aI13392432
aI13401432
aI13409948
aI13418150
aI13458846
aI13467932
aI13493547
aI13495846
aI13495847
aI13530713
aI13534595
aI13572969
aI13584632
aI13636980
aI13654179
aI13657299
aI13670582
aI13678066
aI13703349
aI13720974
aI13726850
aI13744200
aI13751778
aI13765709
aI13790921
aI13862321
aI13881312
aI13881363
aI13882413
aI13892383
aI13907797
aI13932921
aI13948777
aI13967491
aI14018343
aI14032845
aI14034378
aI14038604
aI14055927
aI14066722
aI14071984
aI14107368
aI14153850
aI14172984
aI14211270
aI14230602
aI14235453
aI14243145
aI14243148
aI14253756
aI14275263
aI14277252
aI14289464
aI14313438
aI14325839
aI14339647
aI14340188
aI14340906
aI14351384
aI14389993
aI14390632
aI14435069
aI14448359
aI14462288
aI14466031
aI14492850
aI14501204
aI14512035
aI14522272
aI14523122
aI14554710
aI14571896
aI14641392
aI14645594
aI14646465
aI14670377
aI14680804
aI14682036
aI14683684
aI14710063
aI14725821
aI14731105
aI14746362
aI14755875
aI14830065
aI14874771
aI14884171
aI14900125
aI14913383
aI14917974
aI14924683
aI14933193
aI14933676
aI14972880
aI15005208
aI15013332
aI15013985
aI15039554
aI15078895
aI15134419
aI15142833
aI15157693
aI15157886
aI15159133
aI15161934
aI15162857
aI15192578
aI15197817
aI15208676
aI15235915
aI15236048
aI15248147
aI15269742
aI15282610
aI15285820
aI15299874
aI15323057
aI15325891
aI15414349
aI15447728
aI15516432
aI15563910
aI15585251
aI15592420
aI15602895
aI15646760
aI15661532
aI15746501
aI15831781
aI15843201
aI15848082
aI15853014
aI15855575
aI15919461
aI15924009
aI15925558
aI15926569
aI15929985
aI15969515
aI15982996
aI16002487
aI16015756
aI16027048
aI16057945
aI16069525
aI16073892
aI16078861
aI16093430
aI16101782
aI16179341
aI16201932
aI16254959
aI16267774
aI16283575
aI16291777
aI16321625
aI16359811
aI16372563
aI16466597
aI16484321
aI16491584
aI16504499
aI16518964
aI16579250
aI16591475
aI16596783
aI16598971
aI16615479
aI16616353
aI16648317
aI16666369
aI16675057
aI16736550
aI16749859
aI16777681
aI16778304
aI16778465
aI16786952
aI16788668
aI16822731
aI16837809
aI16875303
aI16879419
aI16944804
aI17012734
aI17024100
aI17031818
aI17069432
aI17078912
aI17086272
aI17088933
aI17094927
aI17161749
aI17270917
aI17275092
aI17294841
aI17301177
aI17325035
aI17330219
aI17342769
aI17378400
aI17390901
aI17432978
aI17464952
aI17467914
aI17475806
aI17497801
aI17510599
aI17527087
aI17545197
aI17563103
aI17617749
aI17690039
aI17747669
aI17757343
aI17763092
aI17774840
aI17781828
aI17799054
aI17820615
aI17837526
aI17899842
aI17921917
aI17931484
aI17931955
aI17941475
aI17953200
aI17986826
aI17989018
aI18047732
aI18066088
aI18066092
aI18129214
aI18177123
aI18202027
aI18204514
aI18229341
aI18255632
aI18276512
aI18377239
aI18378638
aI18386800
aI18390400
aI18511617
aI18670515
aI18677636
aI18698049
aI18711749
aI18719928
aI18804736
aI18811544
aI18838307
aI18848444
aI18849245
aI18858743
aI18866863
aI18866864
aI18976171
aI18980531
aI19017595
aI19058673
aI19126951
aI19204655
aI19232845
aI19235447
aI19235448
aI19237445
aI19362115
aI19386302
aI19403594
aI19493069
aI19496861
aI19498208
aI19538898
aI19551758
aI19553314
aI19601743
aI19636213
aI19638313
aI19744596
aI19750453
aI19766671
aI19778771
aI19789291
aI19859753
aI19877166
aI19919243
aI19936720
aI19972767
aI19998963
aI20033205
aI20039253
aI20143740
aI20226592
aI20243692
aI20255937
aI20275335
aI20289514
aI20328737
aI20344269
aI20366518
aI20484134
aI20503542
aI20525004
aI20586986
aI20589007
aI20623516
aI20651604
aI20667321
aI20678077
aI20719829
aI20749622
aI20756165
aI20828406
aI20861482
aI20988394
aI21005589
aI21044452
aI21059299
aI21080314
aI21104347
aI21116470
aI21133750
aI21133900
aI21139701
aI21193323
aI21194341
aI21228281
aI21247004
aI21263135
aI21267821
aI21289476
aI21308513
aI21327302
aI21348384
aI21381053
aI21381936
aI21525321
aI21543898
aI21577122
aI21659667
aI21697848
aI21720812
aI21757317
aI21757434
aI21757566
aI21962358
aI21962635
aI22032887
aI22038543
aI22075649
aI22097223
aI22118851
aI22119300
aI22238889
aI22248604
aI22423419
aI22449460
aI22563542
aI22575420
aI22594735
aI22706198
aI22738972
aI22784331
aI22829251
aI22954994
aI22988021
aI23064676
aI23118086
aI23141577
aI23185507
aI23209541
aI23293675
aI23300270
aI23344703
aI23420539
aI23445603
aI23445606
aI23470169
aI23546905
aI23612482
aI23619972
aI23631700
aI23642704
aI23721079
aI23775090
aI23782472
aI23920881
aI23970240
aI23974256
aI23978401
aI23984833
aI24011228
aI24041641
aI24065723
aI24082124
aI24101196
aI24111410
aI24111428
aI24123381
aI24129628
aI24177490
aI24177569
aI24180085
aI24211105
aI24220733
aI24231427
aI24233622
aI24240278
aI24327460
aI24339803
aI24339804
aI24344093
aI24344397
aI24358188
aI24369553
aI24375203
aI24461543
aI24462280
aI24462907
aI24509239
aI24541303
aI24595781
aI24600535
aI24601551
aI24608778
aI24654460
aI24696268
aI24727507
aI24737715
aI24752935
aI24784156
aI24799331
aI24820979
aI24827286
aI24827289
aI24870535
aI24897842
aI24906174
aI24992178
aI24996715
aI25009704
aI25055255
aI25058944
aI25069858
aI25073544
aI25167733
aI25184894
aI25222853
aI25223501
aI25223836
aI25345360
aI25452031
aI25469088
aI25521100
aI25522141
aI25560629
aI25569433
aI25634452
aI25642845
aI25687755
aI25688757
aI25700763
aI25711331
aI25798551
aI25998341
aI26024804
aI26057737
aI26111075
aI26126506
aI26154813
aI26155275
aI26167378
aI26178224
aI26181275
aI26230814
aI26231094
aI26232837
aI26256460
aI26288312
aI26424539
aI26426244
aI26446382
aI26475204
aI26488039
aI26544637
aI26545128
aI26565037
aI26635052
aI26635062
aI26639592
aI26797129
aI26897992
aI26907781
aI26918602
aI27024707
aI27042391
aI27055231
aI27066668
aI27080110
aI27080289
aI27080586
aI27101203
aI27162388
aI27216989
aI27259660
aI27272440
aI27362524
aI27393940
aI27407072
aI27426536
aI27469612
aI27566836
aI27592232
aI27598474
aI27633083
aI27636236
aI27660317
aI27725675
aI27793368
aI27814412
aI27948014
aI27977832
aI28002144
aI28053644
aI28055302
aI28150874
aI28161734
aI28181873
aI28239647
aI28388852
aI28427470
aI28427742
aI28447597
aI28490047
aI28506747
aI28593091
aI28612282
aI28612562
aI28615682
aI28627525
aI28631180
aI28681076
aI28770220
aI28809780
aI28810121
aI28888503
aI29044606
aI29071810
aI29075287
aI29166400
aI29203066
aI29333734
aI29432655
aI29505667
aI29551643
aI29562327
aI29621789
aI29684160
aI29685205
aI29686354
aI29687122
aI29702527
aI29708040
aI29724416
aI29728138
aI29758107
aI29811444
aI29854495
aI29887701
aI29949166
aI29970149
aI30037046
aI30038646
aI30056462
aI30166566
aI30200551
aI30223368
aI30254795
aI30272302
aI30385578
aI30410863
aI30444599
aI30444887
aI30476389
aI30537074
aI30584304
aI30590424
aI30634768
aI30705039
aI30726385
aI30731480
aI30742007
aI30808760
aI30836273
aI30849832
aI30954074
aI30991654
aI31088112
aI31129552
aI31176291
aI31304096
aI31320181
aI31321258
aI31330340
aI31389452
aI31391358
aI31391372
aI31391377
aI31398901
aI31467934
aI31477178
aI31477542
aI31530839
aI31533837
aI31559948
aI31598764
aI31614046
aI31633699
aI31713568
aI31798149
aI31803784
aI31831374
aI31833385
aI31841271
aI31870376
aI31881272
aI31881524
aI31920707
aI31921500
aI31939280
aI31940710
aI31947731
aI31958612
aI32032834
aI32061842
aI32094958
aI32207829
aI32222069
aI32274838
aI32275437
aI32430851
aI32458779
aI32458865
aI32458913
aI32459000
aI32467196
aI32509841
aI32534403
aI32534436
aI32657838
aI32748721
aI32748723
aI32838001
aI32840459
aI32891520
aI32936567
aI33019507
aI33078072
aI33156458
aI33300387
aI33470706
aI33514774
aI33516419
aI33547081
aI33551635
aI33551925
aI33553150
aI33554061
aI33558500
aI33579831
aI33658741
aI33728195
aI33886401
aI33890641
aI33893873
aI33954098
aI33990922
aI34040251
aI34156323
aI34239371
aI34262019
aI34270014
aI34282684
aI34283690
aI34354528
aI34369086
aI34377193
aI34441039
aI34449151
aI34561043
aI34573091
aI34826566
aI34963712
aI35041629
aI35072810
aI35124438
aI35222909
aI35298322
aI35305768
aI35343126
aI35373309
aI35539048
aI35576658
aI35590244
aI35991430
aI35991435
aI36130999
aI36176295
aI36279272
aI36361010
aI37169102
aI37169390
aI37172844
aI37217358
aI37221406
aI37229557
aI37319914
aI37742195
aI37748111
aI37857386
aI37988191
aI38006663
aI38041744
aI38169916
aI38247654
aI38356077
aI38412907
aI38504462
aI38616789
aI38696940
aI38762368
aI38806901
aI38905619
aI39138852
aI39149514
aI39244700
aI39285482
aI39438721
aI39539748
aI39566102
aI39571973
aI39573939
aI39574343
aI39578623
aI39644524
aI39665398
aI39716906
aI39737766
aI39761859
aI39784671
aI39792642
aI39811347
aI39836759
aI39912437
aI39915672
aI40088491
aI40109537
aI40174914
aI40301408
aI40436221
aI40442096
aI40567808
aI40569603
aI40599450
aI40603034
aI40744022
aI40780672
aI40901948
aI40933973
aI41116205
aI41134702
aI41144312
aI41154540
aI41186101
aI41304832
aI41314118
aI41366944
aI41388091
aI41478519
aI41478521
aI41495720
aI41613709
aI41614016
aI41614424
aI41640235
aI41678219
aI41899205
aI41930990
aI41964566
aI41964896
aI41966568
aI42057891
aI42148269
aI42157793
aI42234557
aI42353898
aI42382473
aI42385440
aI42416409
aI42733113
aI42768521
aI42987210
aI43071940
aI43116370
aI43136109
aI43157521
aI43157653
aI43207258
aI43215017
aI43227635
aI43240148
aI43266421
aI43280922
aI43287084
aI43377209
aI43385454
aI43406016
aI43424246
aI43446528
aI43522678
aI43522877
aI43546408
aI43591426
aI43618797
aI43668487
aI43715178
aI43799867
aI43832455
aI43856723
aI43971403
aI44063581
aI44105179
aI44129023
aI44379854
aI44509843
aI44533923
aI44539293
aI44579503
aI44650130
aI44675997
aI44711751
aI44714062
aI44715554
aI44721648
aI44721717
aI44729622
aI44731384
aI44924104
aI44924491
aI44925500
aI44933246
aI44944531
aI45106147
aI45131221
aI45133264
aI45134283
aI45143501
aI45149387
aI45152601
aI45184654
aI45188690
aI45191567
aI45262412
aI45273858
aI45312855
aI45316751
aI45358514
aI45371730
aI45412390
aI45418767
aI45479420
aI45499054
aI45500301
aI45501246
aI45558015
aI45626907
aI45645882
aI45703716
aI45763411
aI45773238
aI45968701
aI46125371
aI46126972
aI46162756
aI46180992
aI46330720
aI46334326
aI46355868
aI46364640
aI46370744
aI46409468
aI46595579
aI46666137
aI46715808
aI46747830
aI46852704
aI46857238
aI46857678
aI46868140
aI47026138
aI47255515
aI47263995
aI47271785
aI47281728
aI47283261
aI47296948
aI47320439
aI47325907
aI47451591
aI47480256
aI47513976
aI47560548
aI47578384
aI47613169
aI47614321
aI47623335
aI47844478
aI47974977
aI47975328
aI47982831
aI48050407
aI48056039
aI48064500
aI48092766
aI48183828
aI48533525
aI48668865
aI48692568
aI48727902
aI48772106
aI48819422
aI48819563
aI48820688
aI49128165
aI49226245
aI49306669
aI49321632
aI49533605
aI49548762
aI49588295
aI49621566
aI49745347
aI49774839
aI49812844
aI49842482
aI49935666
aI49955866
aI50074476
aI50094344
aI50102253
aI50124593
aI50124925
aI50127321
aI50188841
aI50214508
aI50222504
aI50228155
aI50237340
aI50514520
aI50686510
aI50742491
aI50743266
aI50743993
aI50838250
aI50851488
aI50851755
aI50896379
aI50896693
aI50966337
aI50967063
aI50967504
aI51114179
aI51134167
aI51215138
aI51216276
aI51253731
aI51726595
aI51758004
aI51758490
aI51775848
aI51823060
aI51823161
aI51851476
aI51990730
aI52027595
aI52032675
aI52055640
aI52081539
aI52092728
aI52114045
aI52150136
aI52168620
aI52230784
aI52246548
aI52250411
aI52266745
aI52323867
aI52340841
aI52392527
aI52441040
aI52452660
aI52525442
aI52540379
aI52606051
aI52695166
aI52739013
aI52898922
aI52939003
aI52981623
aI53234864
aI53248898
aI53249346
aI53583344
aI53654814
aI53826999
aI53901556
aI53998981
aI54096410
aI54225085
aI54342547
aI54342944
aI54426238
aI54441462
aI54470518
aI54670924
aI54733113
aI54875503
aI54897966
aI54919026
aI55013360
aI55079847
aI55083587
aI55092587
aI55096474
aI55221186
aI55331611
aI55336843
aI55396179
aI55435470
aI55441647
aI55449982
aI55537282
aI55759327
aI55760679
aI55872722
aI55905425
aI55919987
aI55989576
aI56068289
aI56123012
aI56224789
aI56251224
aI56319143
aI56354595
aI56355908
aI56517276
aI56542753
aI56560416
aI56651059
aI56715840
aI56717450
aI56738132
aI56751209
aI56755449
aI56844635
aI56845588
aI56880585
aI56881669
aI56885914
aI56965719
aI57062030
aI57133009
aI57133013
aI57133014
aI57163305
aI57263931
aI57528443
aI57571148
aI57619856
aI57659403
aI57774732
aI57804889
aI57831926
aI57853221
aI57909664
aI57943705
aI58016355
aI58259530
aI58291754
aI58345261
aI58369580
aI58370448
aI58501234
aI58690643
aI58797899
aI58834059
aI59331001
aI59603584
aI59774050
aI59858805
aI60048027
aI60048030
aI60048037
aI60137292
aI60383377
aI60386326
aI60722715
aI60735335
aI60758217
aI60758564
aI60766200
aI60781787
aI60782643
aI60808329
aI60851303
aI60978792
aI61096836
aI61140998
aI61142549
aI61158099
aI61291079
aI61291085
aI61453352
aI61457133
aI61672735
aI61707616
aI61768097
aI61780932
aI61784823
aI61798955
aI61799733
aI61801917
aI61812285
aI61821531
aI61888880
aI61950727
aI61961950
aI61978049
aI61978662
aI62001794
aI62034702
aI62118833
aI62146680
aI62176128
aI62176647
aI62176956
aI62177184
aI62178301
aI62313337
aI62381950
aI62414409
aI62435809
aI62467218
aI62480039
aI62512316
aI62555497
aI62575208
aI62655213
aI62730931
aI62832980
aI62833560
aI62840526
aI62981662
aI63113258
aI63513967
aI63602385
aI63605507
aI63625530
aI63658196
aI63740972
aI63743049
aI63840606
aI63953164
aI64150597
aI64151022
aI64151453
aI64156202
aI64200584
aI64353264
aI64379804
aI64430557
aI64459098
aI64470750
aI64472644
aI64521257
aI64546878
aI64549799
aI64578270
aI64614700
aI64743594
aI64750116
aI64764002
aI64993405
aI65013247
aI65118816
aI65141665
aI65186675
aI65406517
aI65457822
aI65465445
aI65615791
aI65671979
aI65896748
aI65920013
aI65949199
aI65956582
aI65975930
aI66120640
aI66121447
aI66122687
aI66124107
aI66315623
aI66426525
aI66441341
aI66703243
aI66784016
aI66948656
aI66958425
aI66966593
aI67285871
aI67308562
aI67308596
aI67308854
aI67346872
aI67462653
aI67561169
aI67563290
aI67590135
aI67620361
aI67620900
aI67894254
aI67901005
aI68037325
aI68039593
aI68042850
aI68053147
aI68130224
aI68145498
aI68239128
aI68305060
aI68364100
aI68539087
aI68561467
aI68561789
aI68579712
aI68581062
aI68738494
aI68772570
aI68900839
aI68941115
aI68980558
aI69142175
aI69146684
aI69152459
aI69192290
aI69225395
aI69257655
aI69312351
aI69328339
aI69407243
aI69432614
aI69573768
aI69580754
aI69580979
aI69756846
aI69804589
aI69815864
aI69838408
aI69859297
aI69860596
aI69887547
aI69903873
aI69942505
aI69993668
aI70065858
aI70071835
aI70082332
aI70102419
aI70180212
aI70285236
aI70386036
aI70494758
aI70514268
aI70560417
aI70623847
aI70665385
aI70688757
aI70689764
aI70779089
aI70785573
aI70793472
aI70794113
aI70794457
aI70861357
aI70933576
aI70949253
aI70956961
aI71008772
aI71043223
aI71088128
aI71089052
aI71089056
aI71130034
aI71235445
aI71417686
aI71469385
aI71471112
aI71644908
aI71860152
aI71908015
aI71917555
aI72000571
aI72219404
aI72491632
aI72492270
aI72509506
aI72511629
aI72650614
aI72651325
aI72679010
aI72728014
aI72755309
aI72777811
aI72852614
aI72852654
aI72877837
aI72919403
aI72932574
aI72942707
aI72947835
aI73050570
aI73080197
aI73109595
aI73235930
aI73258294
aI73364623
aI73453484
aI73453923
aI73488318
aI73489372
aI73490181
aI73645995
aI73692524
aI73802742
aI73862017
aI73864964
aI73866771
aI74087430
aI74198259
aI74260920
aI74289686
aI74326350
aI74379533
aI74401552
aI74581586
aI74681191
aI74681582
aI74783116
aI74787976
aI74788737
aI74790205
aI74903161
aI75134176
aI75175422
aI75195275
aI75210822
aI75338733
aI75387531
aI75402470
aI75596218
aI75653382
aI75684044
aI75702677
aI75712595
aI75732092
aI75828744
aI75832194
aI75984425
aI76139590
aI76278366
aI76349776
aI76451645
aI76465291
aI76579685
aI76590906
aI76865675
aI76967701
aI76996337
aI77116415
aI77180289
aI77215614
aI77256256
aI77494873
aI77499517
aI77842049
aI77882163
aI78190588
aI78293737
aI78498052
aI78587858
aI78919209
aI78947147
aI78951516
aI78955461
aI78957872
aI79031721
aI79395039
aI79499865
aI79501885
aI79515021
aI79531595
aI79574316
aI79575488
aI79576043
aI79576548
aI79577132
aI79577770
aI79581320
aI79582157
aI79582527
aI79590381
aI79591198
aI79591666
aI79599520
aI79651162
aI79653155
aI79944379
aI79949145
aI80107143
aI80128988
aI80231025
aI80306772
aI80319547
aI80418891
aI80479173
aI80487202
aI80490345
aI80500420
aI80552445
aI80603368
aI80667906
aI81062404
aI81063901
aI81158151
aI81160367
aI81160806
aI81434833
aI81494919
aI81677778
aI81735629
aI81757632
aI81876040
aI81903659
aI81999082
aI82001223
aI82001489
aI82016079
aI82023368
aI82094438
aI82102632
aI82166386
aI82241870
aI82376309
aI82377285
aI82474274
aI82563848
aI82957240
aI82958244
aI82959218
aI84021097
aI84021652
aI84030792
aI84071685
aI84313059
aI84429394
aI84433080
aI84685650
aI84885688
aI84894653
aI84971747
aI85058354
aI85144767
aI85281632
aI85335511
aI85472178
aI85499614
aI85646617
aI86086235
aI86168429
aI86179350
aI86231052
aI86296377
aI86305163
aI86441831
aI86672271
aI86693942
aI86783731
aI87123592
aI87179896
aI87289062
aI87293318
aI87301492
aI87311923
aI87714990
aI87774711
aI87801130
aI87803036
aI87879327
aI87952522
aI88139246
aI88199598
aI88356105
aI88627626
aI88706194
aI88739603
aI88743093
aI88913368
aI89082242
aI89115876
aI89199714
aI89246394
aI89272282
aI89313768
aI89596257
aI89835883
aI90170730
aI90182474
aI90196850
aI90213331
aI90215740
aI90224532
aI90260841
aI90282779
aI90285363
aI90483394
aI90508169
aI90589869
aI90638888
aI90646484
aI90741853
aI90742212
aI90742959
aI90743742
aI90842862
aI90878993
aI90985649
aI91038037
aI91099955
aI91282582
aI91315632
aI91394860
aI91426924
aI91580544
aI91632757
aI91768048
aI91894620
aI91909202
aI91965728
aI92165083
aI92280572
aI92335351
aI92379518
aI92483103
aI92576183
aI92601936
aI92737386
aI92794859
aI92920225
aI93188698
aI93269011
aI93484095
aI93549947
aI93733167
aI94126223
aI94128977
aI94136351
aI94364727
aI94397394
aI94467906
aI94502320
aI94526878
aI94589054
aI94660220
aI94678297
aI94890021
aI94936348
aI94947266
aI94970154
aI95058988
aI95265866
aI95281074
aI95283134
aI95283773
aI95285488
aI95404851
aI95425363
aI95438866
aI95444733
aI95446834
aI95449714
aI95543477
aI95570985
aI95628225
aI95697712
aI95748166
aI95764342
aI95769734
aI95769737
aI95769739
aI95983299
aI96203403
aI96231607
aI96242348
aI96443357
aI96559962
aI96681931
aI96754388
aI96797945
aI96916368
aI96927633
aI96971537
aI97024411
aI97116115
aI97242057
aI97259622
aI97270951
aI97415229
aI97507398
aI97507947
aI97692002
aI97694110
aI97701264
aI97769854
aI97771693
aI97840598
aI97882001
aI98059596
aI98104294
aI98141432
aI98323040
aI98366134
aI98451806
aI98488150
aI98488744
aI98500908
aI98501317
aI98608246
aI98803337
aI98809857
aI98810351
aI99122131
aI99132939
aI99335938
aI99579048
aI99739116
aI99760990
aI99803514
aI99806710
aI99891202
aI100425940
aI100455370
aI100458486
aI100461595
aI100469465
aI100605085
aI100610758
aI100620705
aI100774473
aI100819077
aI100822754
aI100828556
aI100912003
aI101035202
aI101099053
aI101158737
aI101189728
aI101195867
aI101361246
aI101365087
aI101426502
aI101587742
aI101670503
aI101694527
aI101991667
aI101999848
aI102087299
aI102119467
aI102167443
aI102176462
aI102221655
aI102235599
aI102238588
aI102250723
aI102299393
aI102354793
aI102380542
aI102536019
aI102637785
aI102685760
aI102847629
aI102982256
aI102983681
aI102984827
aI102997942
aI103071113
aI103161344
aI103425006
aI103462401
aI103732079
aI103800004
aI103808933
aI103883506
aI103895174
aI103901613
aI103901702
aI104141798
aI104222961
aI104288277
aI104288342
aI104308587
aI104339264
aI104342476
aI104342958
aI104346760
aI104357619
aI104361015
aI104444538
aI105104405
aI105147503
aI105324747
aI105331984
aI105361474
aI105477358
aI105620422
aI105670986
aI105715242
aI105819148
aI105954322
aI105957370
aI106146077
aI106158414
aI106213921
aI106232722
aI106253225
aI106273018
aI106334397
aI106364165
aI106705510
aI106795076
aI107067600
aI107078947
aI107125058
aI107311553
aI107332628
aI107365393
aI107370484
aI107372332
aI107420821
aI107452825
aI107454370
aI107558541
aI107559780
aI107560418
aI107799466
aI107806704
aI108122194
aI108252964
aI108342863
aI108360149
aI108425571
aI108458603
aI108553288
aI108706160
aI108912281
aI108926192
aI108986467
aI109122001
aI109140481
aI109154481
aI109367640
aI109669505
aI109671376
aI109709920
aI109738200
aI109814694
aI109957543
aI110140405
aI110451461
aI110455671
aI110456570
aI110456596
aI110456607
aI110469043
aI110599017
aI110614901
aI110620147
aI110749934
aI110799611
aI110831653
aI110985344
aI111121526
aI111121527
aI111146801
aI111148931
aI111174313
aI111587094
aI111748752
aI111750159
aI111754010
aI111760828
aI111834536
aI111900262
aI111925848
aI112071819
aI112125311
aI112252149
aI112303800
aI112418840
aI112512626
aI112646682
aI112647063
aI112818470
aI112854827
aI113284253
aI113306683
aI113419751
aI113517080
aI113537075
aI113606446
aI113668443
aI113988667
aI114347939
aI114394368
aI114409141
aI114409702
aI114664520
aI114848626
aI115080322
aI115343607
aI115721946
aI115721950
aI115856588
aI115891943
aI115929315
aI116266030
aI116266056
aI116435535
aI116436384
aI116701173
aI116720424
aI116824569
aI116826835
aI116904537
aI116973027
aI116973036
aI117150752
aI117153040
aI117179130
aI117280397
aI117312490
aI117340524
aI117365699
aI117365704
aI117441226
aI117554460
aI117969443
aI118124753
aI118333840
aI118335726
aI118702474
aI118837109
aI118837694
aI118941708
aI119017578
aI119076523
aI119705199
aI120020470
aI120025145
aI120142111
aI120493934
aI120498474
aI120499516
aI120600240
aI120625277
aI121587350
aI121932833
aI121990992
aI122139258
aI122207024
aI122300247
aI122300503
aI122300881
aI122301896
aI122786205
aI122850235
aI122853403
aI122854275
aI123632025
aI123866592
aI123914555
aI123915529
aI124351089
aI124995225
aI125237106
aI125379463
aI125381330
aI125409910
aI125828302
aI126039005
aI126730465
aI126947937
aI127007257
aI127008991
aI127269360
aI127368233
aI127370305
aI127473054
aI127525680
aI127621428
aI128388289
aI128558484
aI128574936
aI128672910
aI128707842
aI129317971
aI129329676
aI129988956
aI129991905
aI130199034
aI130200230
aI130317164
aI130595425
aI130980974
aI130989521
aI131013370
aI131150732
aI131731335
aI132160978
aI132552114
aI132701394
aI132802413
aI132802415
aI132802417
aI132802430
aI133074604
aI133075727
aI133189703
aI133279815
aI133390077
aI133487206
aI133488833
aI133488990
aI133674786
aI134312948
aI134348798
aI134609575
aI134677913
aI134777663
aI134819579
aI135506260
aI135617902
aI136418456
aI136546482
aI136937597
aI137206376
aI137218567
aI137556299
aI137563851
aI138270145
aI138360137
aI138471287
aI138543464
aI138579610
aI138704676
aI138837146
aI139008247
aI139405207
aI139524490
aI139706665
aI139849057
aI140004243
aI140008252
aI140024130
aI140113344
aI140307076
aI140308089
aI140309037
aI140352749
aI140767286
aI141156891
aI141291531
aI141295946
aI141386450
aI141389511
aI141389517
aI142231962
aI142965936
aI143070539
aI143629201
aI143752037
aI143778097
aI143816210
aI143939325
aI144539255
aI145217414
aI145326995
aI145719235
aI146436975
aI146512654
aI146616749
aI147050818
aI147109592
aI147464862
aI147990317
aI148002363
aI148015024
aI148020199
aI148739170
aI148770558
aI149381725
aI149780900
aI149782043
aI150501765
aI150881624
aI150882376
aI150928672
aI151241180
aI151252208
aI151321109
aI151584292
aI152374946
aI152550134
aI152945028
aI153008973
aI153240282
aI156205332
aI156739945
aI158117598
aI158223559
aI158624421
aI158891749
aI159305281
aI159404694
aI159912933
aI160038372
aI160061375
aI160160560
aI160266152
aI160420604
aI160531972
aI160554334
aI160742431
aI160745370
aI160966382
aI162443456
aI163554203
aI163741059
aI163785416
aI164583297
aI164585031
aI164589254
aI164605869
aI164608385
aI164617864
aI164618582
aI165524941
aI165589845
aI165991191
aI166022072
aI166030673
aI166718420
aI167087160
aI167497786
aI167539368
aI168083640
aI168172340
aI168409923
aI168581454
aI168812307
aI169292802
aI169293371
aI169573143
aI169642892
aI169861105
aI169861226
aI170115310
aI170463826
aI170630870
aI170831503
aI171054416
aI171059439
aI171484621
aI171810837
aI171824724
aI171865204
aI171872461
aI171952516
aI172262683
aI172287526
aI172292152
aI172342319
aI172599211
aI172916453
aI173476331
aI173511335
aI173794151
aI174072860
aI174574684
aI174671350
aI174981231
aI175170241
aI175760293
aI176071400
aI176259758
aI176758184
aI176770801
aI176775556
aI176862338
aI176863899
aI176866380
aI177586051
aI177714927
aI177984913
aI178194291
aI178220470
aI179592362
aI179595473
aI179992082
aI180203210
aI180235876
aI180308104
aI180344080
aI180360457
aI180366993
aI180501888
aI180679028
aI181595985
aI182697370
aI182706328
aI183134355
aI183235433
aI183530926
aI183589196
aI184425957
aI184460944
aI184566615
aI184648551
aI184891642
aI185394645
aI185602064
aI185625479
aI186450045
aI187725450
aI187752650
aI187828779
aI188268072
aI189220579
aI189356448
aI190286631
aI190286652
aI191381876
aI191491290
aI191747759
aI192189997
aI192377623
aI192387711
aI192461081
aI192907946
aI193327311
aI194226852
aI194589926
aI194932512
aI194958337
aI194964989
aI194966482
aI194966611
aI194966835
aI194993919
aI196487591
aI196600342
aI196721871
aI196764097
aI196858054
aI196903706
aI197499293
aI198252912
aI198384562
aI198527382
aI199255857
aI199697299
aI199703817
aI200091445
aI200233735
aI201074508
aI201497863
aI201674377
aI201675707
aI201676830
aI202041821
aI202340859
aI202861567
aI202894216
aI202921046
aI203516085
aI203721729
aI203890493
aI204710344
aI204710501
aI204710902
aI204838268
aI204876014
aI205074213
aI205144700
aI205502980
aI205641744
aI205663178
aI205865488
aI205995267
aI206038066
aI206083164
aI206083926
aI206129641
aI206183022
aI206335697
aI206335859
aI206339450
aI206346565
aI206463863
aI206846599
aI207057663
aI207087637
aI207430599
aI207439244
aI207446905
aI207827432
aI207940269
aI208132750
aI208926535
aI209001693
aI209006197
aI209049067
aI209981855
aI210659957
aI211072421
aI211088908
aI211226206
aI211362066
aI211762747
aI211920737
aI211939687
aI212021250
aI212734629
aI214544634
aI214559646
aI214688491
aI214756933
aI215267313
aI215327063
aI215578770
aI215838746
aI216401719
aI217045812
aI217308750
aI217310839
aI217313539
aI217318440
aI217319567
aI217359225
aI217723947
aI217852279
aI218661329
aI218913036
aI219370415
aI219437187
aI219804658
aI220485401
aI220712718
aI220731711
aI220741340
aI220960656
aI223496204
aI224143976
aI224271142
aI225411357
aI225414385
aI225751120
aI226321714
aI226588477
aI227467964
aI227479666
aI227638877
aI227707154
aI227923500
aI227924489
aI228371392
aI229223746
aI229899332
aI231010717
aI231111146
aI231733087
aI232101386
aI232800650
aI232981894
aI233698580
aI234579505
aI235032301
aI235427796
aI236759290
aI236947285
aI236950346
aI237076481
aI237542871
aI238685805
aI239132664
aI239214046
aI239523218
aI240128518
aI240497755
aI240598737
aI240752501
aI240778884
aI241376289
aI242041832
aI242340585
aI242341813
aI242344176
aI242719640
aI242848042
aI242939553
aI243402823
aI243869463
aI244093330
aI244221765
aI244221766
aI244539288
aI244833178
aI245114448
aI245882467
aI245883278
aI245884419
aI246822922
aI247422773
aI247547844
aI247549283
aI247550508
aI247551212
aI247623611
aI248308669
aI249936210
aI250097190
aI250112452
aI251796199
aI252031700
aI252336243
aI252702801
aI254325273
aI254437215
aI254473433
aI255078525
aI255293915
aI255695053
aI255912436
aI256154829
aI256162928
aI256175565
aI256177370
aI256215768
aI256495536
aI256518962
aI256679508
aI257058198
aI257167824
aI258087796
aI259645489
aI260275573
aI260668261
aI261418678
aI261515985
aI262167615
aI262941175
aI263275281
aI263893122
aI264009368
aI264482043
aI265132370
aI265249130
aI265576693
aI266521009
aI267524885
aI267561455
aI267932904
aI267989754
aI268006073
aI268009127
aI268016259
aI268085443
aI269008453
aI269120327
aI269229581
aI271190803
aI271938597
aI272100195
aI272104968
aI272107818
aI272716805
aI273476750
aI274253128
aI276592036
aI276998075
aI277806511
aI278245198
aI278461552
aI278599554
aI279454144
aI279460162
aI280068501
aI280151363
aI280157946
aI282645551
aI282665101
aI282787172
aI282923676
aI284056338
aI285569867
aI285933384
aI286063216
aI288222970
aI288501005
aI289490473
aI289490670
aI289683004
aI290740784
aI291210646
aI291954133
aI292553189
aI292974003
aI294169581
aI294349196
aI294881509
aI295202671
aI295376890
aI296389572
aI296983403
aI296986784
aI297223653
aI297526630
aI297597767
aI299747895
aI299954512
aI299957919
aI300108621
aI301428175
aI302081095
aI302081099
aI302446549
aI303261139
aI303853204
aI304071353
aI304494447
aI304751055
aI304753051
aI304754871
aI304756864
aI304848381
aI305680096
aI305779019
aI305882779
aI308058990
aI308427977
aI308707787
aI308771950
aI309248219
aI309495277
aI310501829
aI310722357
aI310759972
aI311357831
aI311603786
aI311839245
aI312884955
aI312956673
aI313007640
aI313337658
aI314254108
aI314254250
aI315276246
aI315338359
aI315710265
aI315951000
aI315953852
aI318144177
aI318901972
aI319103238
aI319389259
aI319834918
aI320261329
aI320266224
aI320783861
aI321024506
aI321029814
aI321398493
aI323243774
aI323340933
aI324039154
aI324148352
aI324148482
aI324149038
aI324273676
aI324285624
aI324316661
aI324493088
aI325078457
aI325261422
aI325614330
aI325993074
aI326031854
aI326874282
aI327288604
aI327441167
aI327448010
aI327849388
aI328367828
aI328461638
aI328547900
aI329577491
aI329642030
aI329676891
aI331593461
aI331920194
aI331921318
aI332085059
aI332435431
aI332619686
aI332932823
aI333254041
aI333732133
aI333740390
aI333890723
aI334714321
aI334989679
aI335371414
aI336314989
aI336751437
aI336928213
aI337138811
aI337351979
aI337429768
aI337500351
aI337730774
aI337776539
aI340584725
aI341145586
aI341772208
aI344135407
aI344168381
aI344396480
aI344903667
aI344997295
aI346122738
aI346129099
aI346490198
aI347781524
aI348378319
aI348387073
aI348920811
aI349104411
aI349757380
aI350856238
aI351090785
aI352071349
aI352606001
aI352833769
aI352926525
aI352926533
aI355578764
aI355780123
aI356410217
aI356776054
aI356776055
aI357115810
aI357236736
aI357528641
aI358611523
aI359048131
aI359309978
aI359515271
aI360664198
aI360720266
aI361553204
aI364693604
aI365501421
aI365732875
aI367325439
aI368043161
aI368301174
aI368793151
aI369592577
aI369876577
aI369997065
aI372443100
aI372589684
aI372713445
aI374078061
aI375072371
aI376134524
aI376616835
aI376996130
aI378440596
aI378648884
aI379185006
aI379304415
aI379412503
aI379764459
aI379805750
aI380076592
aI380262761
aI381842139
aI382944520
aI383849668
aI384384577
aI384605986
aI385165057
aI386061919
aI387212670
aI388840482
aI388998618
aI390986142
aI391199140
aI391480726
aI392657258
aI392702829
aI392707398
aI393956431
aI394083030
aI394330998
aI394463298
aI394946247
aI395211121
aI395215609
aI395678621
aI396856104
aI397295852
aI397929174
aI398667589
aI399758889
aI401472375
aI401474555
aI402621782
aI403716133
aI406193166
aI406772746
aI407143193
aI407163918
aI407163924
aI408487148
aI408708185
aI409389779
aI410326923
aI410673942
aI411009378
aI411012278
aI411499821
aI412002706
aI412229617
aI412292455
aI415164103
aI415189540
aI415297560
aI416487993
aI416503125
aI417808342
aI418269969
aI418398471
aI419238480
aI420416860
aI421324606
aI423900412
aI424066663
aI425183095
aI425430257
aI425430259
aI425646749
aI425915363
aI426416867
aI427001430
aI427232871
aI427791697
aI428325648
aI428689428
aI429313737
aI430200314
aI430478134
aI431022861
aI432069806
aI432279575
aI432360866
aI432625433
aI432694465
aI434812629
aI436597909
aI436607664
aI436644081
aI437364249
aI437751327
aI438427402
aI439557751
aI439613773
aI441818322
aI441819725
aI442002167
aI442100809
aI443816449
aI443945883
aI443946782
aI443959823
aI445283698
aI445435620
aI446782750
aI446957465
aI447593714
aI448202135
aI448202867
aI448640779
aI448733060
aI450061003
aI450954409
aI451072072
aI452027895
aI452996461
aI453557777
aI453712236
aI454031869
aI455105195
aI455105518
aI456356250
aI457193568
aI458416093
aI458609667
aI458610362
aI458692031
aI459181262
aI459246586
aI459323667
aI459897241
aI459914049
aI459914050
aI459919913
aI460196581
aI460298001
aI460300805
aI461305576
aI461988061
aI463310466
aI465942969
aI468194424
aI468411969
aI468415127
aI471738903
aI475548175
aI477159259
aI478218047
aI478406786
aI480377500
aI480919550
aI481913811
aI482075715
aI483543251
aI483610921
aI485858714
aI486564487
aI486873642
aI489322363
aI490211200
aI491612095
aI492640179
aI494785387
aI495208408
aI495417021
aI495552140
aI495552232
aI495892636
aI496909035
aI498293437
aI500010136
aI500569133
aI501974902
aI502620204
aI503109948
aI503653830
aI504542400
aI508403247
aI509567872
aI509943841
aI513646384
aI514234051
aI514498007
aI521966032
aI521973827
aI522070075
aI523417920
aI526566459
aI527179971
aI529224969
a.